
avr.elf:     file format elf32-avr


Disassembly of section .text:

00000000 <__vectors>:
   0:	0c 94 72 00 	jmp	0xe4	; 0xe4 <__ctors_end>
   4:	0c 94 7e 00 	jmp	0xfc	; 0xfc <__bad_interrupt>
   8:	0c 94 7e 00 	jmp	0xfc	; 0xfc <__bad_interrupt>
   c:	0c 94 7e 00 	jmp	0xfc	; 0xfc <__bad_interrupt>
  10:	0c 94 7e 00 	jmp	0xfc	; 0xfc <__bad_interrupt>
  14:	0c 94 7e 00 	jmp	0xfc	; 0xfc <__bad_interrupt>
  18:	0c 94 7e 00 	jmp	0xfc	; 0xfc <__bad_interrupt>
  1c:	0c 94 7e 00 	jmp	0xfc	; 0xfc <__bad_interrupt>
  20:	0c 94 7e 00 	jmp	0xfc	; 0xfc <__bad_interrupt>
  24:	0c 94 7e 00 	jmp	0xfc	; 0xfc <__bad_interrupt>
  28:	0c 94 7e 00 	jmp	0xfc	; 0xfc <__bad_interrupt>
  2c:	0c 94 7e 00 	jmp	0xfc	; 0xfc <__bad_interrupt>
  30:	0c 94 7e 00 	jmp	0xfc	; 0xfc <__bad_interrupt>
  34:	0c 94 7e 00 	jmp	0xfc	; 0xfc <__bad_interrupt>
  38:	0c 94 7e 00 	jmp	0xfc	; 0xfc <__bad_interrupt>
  3c:	0c 94 7e 00 	jmp	0xfc	; 0xfc <__bad_interrupt>
  40:	0c 94 7e 00 	jmp	0xfc	; 0xfc <__bad_interrupt>
  44:	0c 94 7e 00 	jmp	0xfc	; 0xfc <__bad_interrupt>
  48:	0c 94 7e 00 	jmp	0xfc	; 0xfc <__bad_interrupt>
  4c:	0c 94 7e 00 	jmp	0xfc	; 0xfc <__bad_interrupt>
  50:	0c 94 7e 00 	jmp	0xfc	; 0xfc <__bad_interrupt>
  54:	0c 94 7e 00 	jmp	0xfc	; 0xfc <__bad_interrupt>
  58:	0c 94 7e 00 	jmp	0xfc	; 0xfc <__bad_interrupt>
  5c:	0c 94 7e 00 	jmp	0xfc	; 0xfc <__bad_interrupt>
  60:	0c 94 7e 00 	jmp	0xfc	; 0xfc <__bad_interrupt>
  64:	0c 94 7e 00 	jmp	0xfc	; 0xfc <__bad_interrupt>
  68:	0c 94 7e 00 	jmp	0xfc	; 0xfc <__bad_interrupt>
  6c:	0c 94 7e 00 	jmp	0xfc	; 0xfc <__bad_interrupt>
  70:	0c 94 7e 00 	jmp	0xfc	; 0xfc <__bad_interrupt>
  74:	0c 94 80 00 	jmp	0x100	; 0x100 <__vector_29>
  78:	0c 94 7e 00 	jmp	0xfc	; 0xfc <__bad_interrupt>
  7c:	0c 94 7e 00 	jmp	0xfc	; 0xfc <__bad_interrupt>
  80:	0c 94 7e 00 	jmp	0xfc	; 0xfc <__bad_interrupt>
  84:	0c 94 7e 00 	jmp	0xfc	; 0xfc <__bad_interrupt>
  88:	0c 94 7e 00 	jmp	0xfc	; 0xfc <__bad_interrupt>
  8c:	0c 94 7e 00 	jmp	0xfc	; 0xfc <__bad_interrupt>
  90:	0c 94 7e 00 	jmp	0xfc	; 0xfc <__bad_interrupt>
  94:	0c 94 7e 00 	jmp	0xfc	; 0xfc <__bad_interrupt>
  98:	0c 94 7e 00 	jmp	0xfc	; 0xfc <__bad_interrupt>
  9c:	0c 94 7e 00 	jmp	0xfc	; 0xfc <__bad_interrupt>
  a0:	0c 94 7e 00 	jmp	0xfc	; 0xfc <__bad_interrupt>
  a4:	0c 94 7e 00 	jmp	0xfc	; 0xfc <__bad_interrupt>
  a8:	0c 94 7e 00 	jmp	0xfc	; 0xfc <__bad_interrupt>
  ac:	0c 94 7e 00 	jmp	0xfc	; 0xfc <__bad_interrupt>
  b0:	0c 94 7e 00 	jmp	0xfc	; 0xfc <__bad_interrupt>
  b4:	0c 94 7e 00 	jmp	0xfc	; 0xfc <__bad_interrupt>
  b8:	0c 94 7e 00 	jmp	0xfc	; 0xfc <__bad_interrupt>
  bc:	0c 94 7e 00 	jmp	0xfc	; 0xfc <__bad_interrupt>
  c0:	0c 94 7e 00 	jmp	0xfc	; 0xfc <__bad_interrupt>
  c4:	0c 94 7e 00 	jmp	0xfc	; 0xfc <__bad_interrupt>
  c8:	0c 94 7e 00 	jmp	0xfc	; 0xfc <__bad_interrupt>
  cc:	0c 94 7e 00 	jmp	0xfc	; 0xfc <__bad_interrupt>
  d0:	0c 94 7e 00 	jmp	0xfc	; 0xfc <__bad_interrupt>
  d4:	0c 94 7e 00 	jmp	0xfc	; 0xfc <__bad_interrupt>
  d8:	0c 94 7e 00 	jmp	0xfc	; 0xfc <__bad_interrupt>
  dc:	0c 94 7e 00 	jmp	0xfc	; 0xfc <__bad_interrupt>
  e0:	0c 94 7e 00 	jmp	0xfc	; 0xfc <__bad_interrupt>

000000e4 <__ctors_end>:
  e4:	11 24       	eor	r1, r1
  e6:	1f be       	out	0x3f, r1	; 63
  e8:	cf ef       	ldi	r28, 0xFF	; 255
  ea:	d1 e2       	ldi	r29, 0x21	; 33
  ec:	de bf       	out	0x3e, r29	; 62
  ee:	cd bf       	out	0x3d, r28	; 61
  f0:	00 e0       	ldi	r16, 0x00	; 0
  f2:	0c bf       	out	0x3c, r16	; 60
  f4:	0e 94 8a 00 	call	0x114	; 0x114 <main>
  f8:	0c 94 8d 00 	jmp	0x11a	; 0x11a <_exit>

000000fc <__bad_interrupt>:
  fc:	0c 94 00 00 	jmp	0	; 0x0 <__vectors>

00000100 <__vector_29>:
 100:	1f 92       	push	r1
 102:	0f 92       	push	r0
 104:	0f b6       	in	r0, 0x3f	; 63
 106:	0f 92       	push	r0
 108:	11 24       	eor	r1, r1
 10a:	0f 90       	pop	r0
 10c:	0f be       	out	0x3f, r0	; 63
 10e:	0f 90       	pop	r0
 110:	1f 90       	pop	r1
 112:	18 95       	reti

00000114 <main>:
 114:	80 e0       	ldi	r24, 0x00	; 0
 116:	90 e0       	ldi	r25, 0x00	; 0
 118:	08 95       	ret

0000011a <_exit>:
 11a:	f8 94       	cli

0000011c <__stop_program>:
 11c:	ff cf       	rjmp	.-2      	; 0x11c <__stop_program>

Disassembly of section .comment:

00000000 <.comment>:
   0:	47 43       	sbci	r20, 0x37	; 55
   2:	43 3a       	cpi	r20, 0xA3	; 163
   4:	20 28       	or	r2, r0
   6:	47 4e       	sbci	r20, 0xE7	; 231
   8:	55 29       	or	r21, r5
   a:	20 35       	cpi	r18, 0x50	; 80
   c:	2e 34       	cpi	r18, 0x4E	; 78
   e:	2e 30       	cpi	r18, 0x0E	; 14
	...

Disassembly of section .note.gnu.avr.deviceinfo:

00000000 <.note.gnu.avr.deviceinfo>:
   0:	04 00       	.word	0x0004	; ????
   2:	00 00       	nop
   4:	2d 00       	.word	0x002d	; ????
   6:	00 00       	nop
   8:	01 00       	.word	0x0001	; ????
   a:	00 00       	nop
   c:	41 56       	subi	r20, 0x61	; 97
   e:	52 00       	.word	0x0052	; ????
  10:	00 00       	nop
  12:	00 00       	nop
  14:	00 00       	nop
  16:	04 00       	.word	0x0004	; ????
  18:	00 02       	muls	r16, r16
  1a:	00 00       	nop
  1c:	00 20       	and	r0, r0
  1e:	00 00       	nop
  20:	00 00       	nop
  22:	00 00       	nop
  24:	00 10       	cpse	r0, r0
  26:	00 00       	nop
  28:	08 00       	.word	0x0008	; ????
  2a:	00 00       	nop
  2c:	01 00       	.word	0x0001	; ????
  2e:	00 00       	nop
  30:	00 61       	ori	r16, 0x10	; 16
  32:	74 6d       	ori	r23, 0xD4	; 212
  34:	65 67       	ori	r22, 0x75	; 117
  36:	61 32       	cpi	r22, 0x21	; 33
  38:	35 36       	cpi	r19, 0x65	; 101
  3a:	30 00       	.word	0x0030	; ????
  3c:	00 00       	nop
	...

Disassembly of section .debug_info:

00000000 <.debug_info>:
   0:	b8 0b       	sbc	r27, r24
   2:	00 00       	nop
   4:	02 00       	.word	0x0002	; ????
   6:	00 00       	nop
   8:	00 00       	nop
   a:	04 01       	movw	r0, r8
	...
  14:	02 0f       	add	r16, r18
  16:	00 00       	nop
  18:	00 01       	movw	r0, r0
  1a:	08 03       	fmul	r16, r16
  1c:	17 00       	.word	0x0017	; ????
  1e:	00 00       	nop
  20:	02 07       	cpc	r16, r18
  22:	04 14       	cp	r0, r4
  24:	00 00       	nop
  26:	00 05       	cpc	r16, r0
  28:	1b 00       	.word	0x001b	; ????
  2a:	00 00       	nop
  2c:	ff 0f       	add	r31, r31
  2e:	00 06       	cpc	r0, r16
  30:	20 00       	.word	0x0020	; ????
  32:	00 00       	nop
  34:	00 00       	nop
  36:	22 00       	.word	0x0022	; ????
  38:	00 00       	nop
  3a:	01 05       	cpc	r16, r1
  3c:	03 00       	.word	0x0003	; ????
  3e:	00 81       	ld	r16, Z
  40:	00 07       	cpc	r16, r16
  42:	29 00       	.word	0x0029	; ????
  44:	00 00       	nop
  46:	00 00       	nop
  48:	14 00       	.word	0x0014	; ????
  4a:	00 00       	nop
  4c:	01 05       	cpc	r16, r1
  4e:	03 7b       	andi	r16, 0xB3	; 179
  50:	00 80       	ld	r0, Z
  52:	00 08       	sbc	r0, r0
  54:	30 00       	.word	0x0030	; ????
  56:	00 00       	nop
  58:	00 00       	nop
  5a:	14 00       	.word	0x0014	; ????
  5c:	00 00       	nop
  5e:	01 05       	cpc	r16, r1
  60:	03 50       	subi	r16, 0x03	; 3
  62:	00 80       	ld	r0, Z
  64:	00 09       	sbc	r16, r0
  66:	35 00       	.word	0x0035	; ????
  68:	00 00       	nop
  6a:	00 00       	nop
  6c:	14 00       	.word	0x0014	; ????
  6e:	00 00       	nop
  70:	01 05       	cpc	r16, r1
  72:	03 7f       	andi	r16, 0xF3	; 243
  74:	00 80       	ld	r0, Z
  76:	00 0a       	sbc	r0, r16
  78:	3b 00       	.word	0x003b	; ????
  7a:	00 00       	nop
  7c:	00 00       	nop
  7e:	14 00       	.word	0x0014	; ????
  80:	00 00       	nop
  82:	01 05       	cpc	r16, r1
  84:	03 c6       	rjmp	.+3078   	; 0xc8c <__LOCK_REGION_LENGTH__+0x88c>
  86:	00 80       	ld	r0, Z
  88:	00 0b       	sbc	r16, r16
  8a:	40 00       	.word	0x0040	; ????
  8c:	00 00       	nop
  8e:	00 00       	nop
  90:	14 00       	.word	0x0014	; ????
  92:	00 00       	nop
  94:	01 05       	cpc	r16, r1
  96:	03 c0       	rjmp	.+6      	; 0x9e <__SREG__+0x5f>
  98:	00 80       	ld	r0, Z
  9a:	00 0c       	add	r0, r0
  9c:	47 00       	.word	0x0047	; ????
  9e:	00 00       	nop
  a0:	00 00       	nop
  a2:	14 00       	.word	0x0014	; ????
  a4:	00 00       	nop
  a6:	01 05       	cpc	r16, r1
  a8:	03 c1       	rjmp	.+518    	; 0x2b0 <__data_load_end+0x192>
  aa:	00 80       	ld	r0, Z
  ac:	00 0d       	add	r16, r0
  ae:	4e 00       	.word	0x004e	; ????
  b0:	00 00       	nop
  b2:	00 00       	nop
  b4:	14 00       	.word	0x0014	; ????
  b6:	00 00       	nop
  b8:	01 05       	cpc	r16, r1
  ba:	03 c2       	rjmp	.+1030   	; 0x4c2 <__LOCK_REGION_LENGTH__+0xc2>
  bc:	00 80       	ld	r0, Z
  be:	00 0e       	add	r0, r16
  c0:	55 00       	.word	0x0055	; ????
  c2:	00 00       	nop
  c4:	00 00       	nop
  c6:	1b 00       	.word	0x001b	; ????
  c8:	00 00       	nop
  ca:	01 05       	cpc	r16, r1
  cc:	03 c4       	rjmp	.+2054   	; 0x8d4 <__LOCK_REGION_LENGTH__+0x4d4>
  ce:	00 80       	ld	r0, Z
  d0:	00 0f       	add	r16, r16
  d2:	5b 00       	.word	0x005b	; ????
  d4:	00 00       	nop
  d6:	00 00       	nop
  d8:	14 00       	.word	0x0014	; ????
  da:	00 00       	nop
  dc:	01 05       	cpc	r16, r1
  de:	03 bd       	out	0x23, r16	; 35
  e0:	00 80       	ld	r0, Z
  e2:	00 10       	cpse	r0, r0
  e4:	61 00       	.word	0x0061	; ????
  e6:	00 00       	nop
  e8:	00 00       	nop
  ea:	14 00       	.word	0x0014	; ????
  ec:	00 00       	nop
  ee:	01 05       	cpc	r16, r1
  f0:	03 b8       	out	0x03, r0	; 3
  f2:	00 80       	ld	r0, Z
  f4:	00 11       	cpse	r16, r0
  f6:	66 00       	.word	0x0066	; ????
  f8:	00 00       	nop
  fa:	00 00       	nop
  fc:	14 00       	.word	0x0014	; ????
  fe:	00 00       	nop
 100:	01 05       	cpc	r16, r1
 102:	03 bc       	out	0x23, r0	; 35
 104:	00 80       	ld	r0, Z
 106:	00 12       	cpse	r0, r16
 108:	6b 00       	.word	0x006b	; ????
 10a:	00 00       	nop
 10c:	00 00       	nop
 10e:	14 00       	.word	0x0014	; ????
 110:	00 00       	nop
 112:	01 05       	cpc	r16, r1
 114:	03 b9       	out	0x03, r16	; 3
 116:	00 80       	ld	r0, Z
 118:	00 13       	cpse	r16, r16
 11a:	70 00       	.word	0x0070	; ????
 11c:	00 00       	nop
 11e:	00 00       	nop
 120:	14 00       	.word	0x0014	; ????
 122:	00 00       	nop
 124:	01 05       	cpc	r16, r1
 126:	03 bb       	out	0x13, r16	; 19
 128:	00 80       	ld	r0, Z
 12a:	00 14       	cp	r0, r0
 12c:	75 00       	.word	0x0075	; ????
 12e:	00 00       	nop
 130:	00 00       	nop
 132:	14 00       	.word	0x0014	; ????
 134:	00 00       	nop
 136:	01 05       	cpc	r16, r1
 138:	03 ba       	out	0x13, r0	; 19
 13a:	00 80       	ld	r0, Z
 13c:	00 15       	cp	r16, r0
 13e:	7a 00       	.word	0x007a	; ????
 140:	00 00       	nop
 142:	00 00       	nop
 144:	14 00       	.word	0x0014	; ????
 146:	00 00       	nop
 148:	01 05       	cpc	r16, r1
 14a:	03 4c       	sbci	r16, 0xC3	; 195
 14c:	00 80       	ld	r0, Z
 14e:	00 16       	cp	r0, r16
 150:	7f 00       	.word	0x007f	; ????
 152:	00 00       	nop
 154:	00 00       	nop
 156:	14 00       	.word	0x0014	; ????
 158:	00 00       	nop
 15a:	01 05       	cpc	r16, r1
 15c:	03 4d       	sbci	r16, 0xD3	; 211
 15e:	00 80       	ld	r0, Z
 160:	00 17       	cp	r16, r16
 162:	84 00       	.word	0x0084	; ????
 164:	00 00       	nop
 166:	00 00       	nop
 168:	14 00       	.word	0x0014	; ????
 16a:	00 00       	nop
 16c:	01 05       	cpc	r16, r1
 16e:	03 4e       	sbci	r16, 0xE3	; 227
 170:	00 80       	ld	r0, Z
 172:	00 18       	sub	r0, r0
 174:	89 00       	.word	0x0089	; ????
 176:	00 00       	nop
 178:	00 00       	nop
 17a:	14 00       	.word	0x0014	; ????
 17c:	00 00       	nop
 17e:	01 05       	cpc	r16, r1
 180:	03 22       	and	r0, r19
 182:	00 80       	ld	r0, Z
 184:	00 19       	sub	r16, r0
 186:	8f 00       	.word	0x008f	; ????
 188:	00 00       	nop
 18a:	00 00       	nop
 18c:	14 00       	.word	0x0014	; ????
 18e:	00 00       	nop
 190:	01 05       	cpc	r16, r1
 192:	03 21       	and	r16, r3
 194:	00 80       	ld	r0, Z
 196:	00 1a       	sub	r0, r16
 198:	94 00       	.word	0x0094	; ????
 19a:	00 00       	nop
 19c:	00 00       	nop
 19e:	14 00       	.word	0x0014	; ????
 1a0:	00 00       	nop
 1a2:	01 05       	cpc	r16, r1
 1a4:	03 20       	and	r0, r3
 1a6:	00 80       	ld	r0, Z
 1a8:	00 1b       	sub	r16, r16
 1aa:	99 00       	.word	0x0099	; ????
 1ac:	00 00       	nop
 1ae:	00 00       	nop
 1b0:	14 00       	.word	0x0014	; ????
 1b2:	00 00       	nop
 1b4:	01 05       	cpc	r16, r1
 1b6:	03 25       	eor	r16, r3
 1b8:	00 80       	ld	r0, Z
 1ba:	00 1c       	adc	r0, r0
 1bc:	9f 00       	.word	0x009f	; ????
 1be:	00 00       	nop
 1c0:	00 00       	nop
 1c2:	14 00       	.word	0x0014	; ????
 1c4:	00 00       	nop
 1c6:	01 05       	cpc	r16, r1
 1c8:	03 24       	eor	r0, r3
 1ca:	00 80       	ld	r0, Z
 1cc:	00 1d       	adc	r16, r0
 1ce:	a4 00       	.word	0x00a4	; ????
 1d0:	00 00       	nop
 1d2:	00 00       	nop
 1d4:	14 00       	.word	0x0014	; ????
 1d6:	00 00       	nop
 1d8:	01 05       	cpc	r16, r1
 1da:	03 23       	and	r16, r19
 1dc:	00 80       	ld	r0, Z
 1de:	00 1e       	adc	r0, r16
 1e0:	a9 00       	.word	0x00a9	; ????
 1e2:	00 00       	nop
 1e4:	00 00       	nop
 1e6:	14 00       	.word	0x0014	; ????
 1e8:	00 00       	nop
 1ea:	01 05       	cpc	r16, r1
 1ec:	03 28       	or	r0, r3
 1ee:	00 80       	ld	r0, Z
 1f0:	00 1f       	adc	r16, r16
 1f2:	af 00       	.word	0x00af	; ????
 1f4:	00 00       	nop
 1f6:	00 00       	nop
 1f8:	14 00       	.word	0x0014	; ????
 1fa:	00 00       	nop
 1fc:	01 05       	cpc	r16, r1
 1fe:	03 27       	eor	r16, r19
 200:	00 80       	ld	r0, Z
 202:	00 20       	and	r0, r0
 204:	b4 00       	.word	0x00b4	; ????
 206:	00 00       	nop
 208:	00 00       	nop
 20a:	14 00       	.word	0x0014	; ????
 20c:	00 00       	nop
 20e:	01 05       	cpc	r16, r1
 210:	03 26       	eor	r0, r19
 212:	00 80       	ld	r0, Z
 214:	00 21       	and	r16, r0
 216:	b9 00       	.word	0x00b9	; ????
 218:	00 00       	nop
 21a:	00 00       	nop
 21c:	14 00       	.word	0x0014	; ????
 21e:	00 00       	nop
 220:	01 05       	cpc	r16, r1
 222:	03 2b       	or	r16, r19
 224:	00 80       	ld	r0, Z
 226:	00 22       	and	r0, r16
 228:	bf 00       	.word	0x00bf	; ????
 22a:	00 00       	nop
 22c:	00 00       	nop
 22e:	14 00       	.word	0x0014	; ????
 230:	00 00       	nop
 232:	01 05       	cpc	r16, r1
 234:	03 2a       	or	r0, r19
 236:	00 80       	ld	r0, Z
 238:	00 23       	and	r16, r16
 23a:	c4 00       	.word	0x00c4	; ????
 23c:	00 00       	nop
 23e:	00 00       	nop
 240:	14 00       	.word	0x0014	; ????
 242:	00 00       	nop
 244:	01 05       	cpc	r16, r1
 246:	03 29       	or	r16, r3
 248:	00 80       	ld	r0, Z
 24a:	00 24       	eor	r0, r0
 24c:	c9 00       	.word	0x00c9	; ????
 24e:	00 00       	nop
 250:	00 00       	nop
 252:	14 00       	.word	0x0014	; ????
 254:	00 00       	nop
 256:	01 05       	cpc	r16, r1
 258:	03 2e       	mov	r0, r19
 25a:	00 80       	ld	r0, Z
 25c:	00 25       	eor	r16, r0
 25e:	cf 00       	.word	0x00cf	; ????
 260:	00 00       	nop
 262:	00 00       	nop
 264:	14 00       	.word	0x0014	; ????
 266:	00 00       	nop
 268:	01 05       	cpc	r16, r1
 26a:	03 2d       	mov	r16, r3
 26c:	00 80       	ld	r0, Z
 26e:	00 26       	eor	r0, r16
 270:	d4 00       	.word	0x00d4	; ????
 272:	00 00       	nop
 274:	00 00       	nop
 276:	14 00       	.word	0x0014	; ????
 278:	00 00       	nop
 27a:	01 05       	cpc	r16, r1
 27c:	03 2c       	mov	r0, r3
 27e:	00 80       	ld	r0, Z
 280:	00 27       	eor	r16, r16
 282:	d9 00       	.word	0x00d9	; ????
 284:	00 00       	nop
 286:	00 00       	nop
 288:	14 00       	.word	0x0014	; ????
 28a:	00 00       	nop
 28c:	01 05       	cpc	r16, r1
 28e:	03 31       	cpi	r16, 0x13	; 19
 290:	00 80       	ld	r0, Z
 292:	00 28       	or	r0, r0
 294:	df 00       	.word	0x00df	; ????
 296:	00 00       	nop
 298:	00 00       	nop
 29a:	14 00       	.word	0x0014	; ????
 29c:	00 00       	nop
 29e:	01 05       	cpc	r16, r1
 2a0:	03 30       	cpi	r16, 0x03	; 3
 2a2:	00 80       	ld	r0, Z
 2a4:	00 29       	or	r16, r0
 2a6:	e4 00       	.word	0x00e4	; ????
 2a8:	00 00       	nop
 2aa:	00 00       	nop
 2ac:	14 00       	.word	0x0014	; ????
 2ae:	00 00       	nop
 2b0:	01 05       	cpc	r16, r1
 2b2:	03 2f       	mov	r16, r19
 2b4:	00 80       	ld	r0, Z
 2b6:	00 2a       	or	r0, r16
 2b8:	e9 00       	.word	0x00e9	; ????
 2ba:	00 00       	nop
 2bc:	00 00       	nop
 2be:	14 00       	.word	0x0014	; ????
 2c0:	00 00       	nop
 2c2:	01 05       	cpc	r16, r1
 2c4:	03 34       	cpi	r16, 0x43	; 67
 2c6:	00 80       	ld	r0, Z
 2c8:	00 2b       	or	r16, r16
 2ca:	ef 00       	.word	0x00ef	; ????
 2cc:	00 00       	nop
 2ce:	00 00       	nop
 2d0:	14 00       	.word	0x0014	; ????
 2d2:	00 00       	nop
 2d4:	01 05       	cpc	r16, r1
 2d6:	03 33       	cpi	r16, 0x33	; 51
 2d8:	00 80       	ld	r0, Z
 2da:	00 2c       	mov	r0, r0
 2dc:	f4 00       	.word	0x00f4	; ????
 2de:	00 00       	nop
 2e0:	00 00       	nop
 2e2:	14 00       	.word	0x0014	; ????
 2e4:	00 00       	nop
 2e6:	01 05       	cpc	r16, r1
 2e8:	03 32       	cpi	r16, 0x23	; 35
 2ea:	00 80       	ld	r0, Z
 2ec:	00 2d       	mov	r16, r0
 2ee:	f9 00       	.word	0x00f9	; ????
 2f0:	00 00       	nop
 2f2:	00 00       	nop
 2f4:	14 00       	.word	0x0014	; ????
 2f6:	00 00       	nop
 2f8:	01 05       	cpc	r16, r1
 2fa:	03 02       	muls	r16, r19
 2fc:	01 80       	ldd	r0, Z+1	; 0x01
 2fe:	00 2e       	mov	r0, r16
 300:	ff 00       	.word	0x00ff	; ????
 302:	00 00       	nop
 304:	00 00       	nop
 306:	14 00       	.word	0x0014	; ????
 308:	00 00       	nop
 30a:	01 05       	cpc	r16, r1
 30c:	03 01       	movw	r0, r6
 30e:	01 80       	ldd	r0, Z+1	; 0x01
 310:	00 2f       	mov	r16, r16
 312:	04 01       	movw	r0, r8
 314:	00 00       	nop
 316:	00 00       	nop
 318:	14 00       	.word	0x0014	; ????
 31a:	00 00       	nop
 31c:	01 05       	cpc	r16, r1
 31e:	03 00       	.word	0x0003	; ????
 320:	01 80       	ldd	r0, Z+1	; 0x01
 322:	00 30       	cpi	r16, 0x00	; 0
 324:	09 01       	movw	r0, r18
 326:	00 00       	nop
 328:	00 00       	nop
 32a:	14 00       	.word	0x0014	; ????
 32c:	00 00       	nop
 32e:	01 05       	cpc	r16, r1
 330:	03 05       	cpc	r16, r3
 332:	01 80       	ldd	r0, Z+1	; 0x01
 334:	00 31       	cpi	r16, 0x10	; 16
 336:	0f 01       	movw	r0, r30
 338:	00 00       	nop
 33a:	00 00       	nop
 33c:	14 00       	.word	0x0014	; ????
 33e:	00 00       	nop
 340:	01 05       	cpc	r16, r1
 342:	03 04       	cpc	r0, r3
 344:	01 80       	ldd	r0, Z+1	; 0x01
 346:	00 32       	cpi	r16, 0x20	; 32
 348:	14 01       	movw	r2, r8
 34a:	00 00       	nop
 34c:	00 00       	nop
 34e:	14 00       	.word	0x0014	; ????
 350:	00 00       	nop
 352:	01 05       	cpc	r16, r1
 354:	03 03       	mulsu	r16, r19
 356:	01 80       	ldd	r0, Z+1	; 0x01
 358:	00 33       	cpi	r16, 0x30	; 48
 35a:	19 01       	movw	r2, r18
 35c:	00 00       	nop
 35e:	00 00       	nop
 360:	14 00       	.word	0x0014	; ????
 362:	00 00       	nop
 364:	01 05       	cpc	r16, r1
 366:	03 08       	sbc	r0, r3
 368:	01 80       	ldd	r0, Z+1	; 0x01
 36a:	00 34       	cpi	r16, 0x40	; 64
 36c:	1f 01       	movw	r2, r30
 36e:	00 00       	nop
 370:	00 00       	nop
 372:	14 00       	.word	0x0014	; ????
 374:	00 00       	nop
 376:	01 05       	cpc	r16, r1
 378:	03 07       	cpc	r16, r19
 37a:	01 80       	ldd	r0, Z+1	; 0x01
 37c:	00 35       	cpi	r16, 0x50	; 80
 37e:	24 01       	movw	r4, r8
 380:	00 00       	nop
 382:	00 00       	nop
 384:	14 00       	.word	0x0014	; ????
 386:	00 00       	nop
 388:	01 05       	cpc	r16, r1
 38a:	03 06       	cpc	r0, r19
 38c:	01 80       	ldd	r0, Z+1	; 0x01
 38e:	00 36       	cpi	r16, 0x60	; 96
 390:	29 01       	movw	r4, r18
 392:	00 00       	nop
 394:	00 00       	nop
 396:	14 00       	.word	0x0014	; ????
 398:	00 00       	nop
 39a:	01 05       	cpc	r16, r1
 39c:	03 0b       	sbc	r16, r19
 39e:	01 80       	ldd	r0, Z+1	; 0x01
 3a0:	00 37       	cpi	r16, 0x70	; 112
 3a2:	2f 01       	movw	r4, r30
 3a4:	00 00       	nop
 3a6:	00 00       	nop
 3a8:	14 00       	.word	0x0014	; ????
 3aa:	00 00       	nop
 3ac:	01 05       	cpc	r16, r1
 3ae:	03 0a       	sbc	r0, r19
 3b0:	01 80       	ldd	r0, Z+1	; 0x01
 3b2:	00 38       	cpi	r16, 0x80	; 128
 3b4:	34 01       	movw	r6, r8
 3b6:	00 00       	nop
 3b8:	00 00       	nop
 3ba:	14 00       	.word	0x0014	; ????
 3bc:	00 00       	nop
 3be:	01 05       	cpc	r16, r1
 3c0:	03 09       	sbc	r16, r3
 3c2:	01 80       	ldd	r0, Z+1	; 0x01
 3c4:	00 39       	cpi	r16, 0x90	; 144
 3c6:	39 01       	movw	r6, r18
 3c8:	00 00       	nop
 3ca:	00 00       	nop
 3cc:	14 00       	.word	0x0014	; ????
 3ce:	00 00       	nop
 3d0:	01 05       	cpc	r16, r1
 3d2:	03 48       	sbci	r16, 0x83	; 131
 3d4:	00 80       	ld	r0, Z
 3d6:	00 3a       	cpi	r16, 0xA0	; 160
 3d8:	3f 01       	movw	r6, r30
 3da:	00 00       	nop
 3dc:	00 00       	nop
 3de:	14 00       	.word	0x0014	; ????
 3e0:	00 00       	nop
 3e2:	01 05       	cpc	r16, r1
 3e4:	03 47       	sbci	r16, 0x73	; 115
 3e6:	00 80       	ld	r0, Z
 3e8:	00 3b       	cpi	r16, 0xB0	; 176
 3ea:	45 01       	movw	r8, r10
 3ec:	00 00       	nop
 3ee:	00 00       	nop
 3f0:	14 00       	.word	0x0014	; ????
 3f2:	00 00       	nop
 3f4:	01 05       	cpc	r16, r1
 3f6:	03 46       	sbci	r16, 0x63	; 99
 3f8:	00 80       	ld	r0, Z
 3fa:	00 3c       	cpi	r16, 0xC0	; 192
 3fc:	4b 01       	movw	r8, r22
 3fe:	00 00       	nop
 400:	00 00       	nop
 402:	14 00       	.word	0x0014	; ????
 404:	00 00       	nop
 406:	01 05       	cpc	r16, r1
 408:	03 45       	sbci	r16, 0x53	; 83
 40a:	00 80       	ld	r0, Z
 40c:	00 3d       	cpi	r16, 0xD0	; 208
 40e:	52 01       	movw	r10, r4
 410:	00 00       	nop
 412:	00 00       	nop
 414:	14 00       	.word	0x0014	; ????
 416:	00 00       	nop
 418:	01 05       	cpc	r16, r1
 41a:	03 44       	sbci	r16, 0x43	; 67
 41c:	00 80       	ld	r0, Z
 41e:	00 3e       	cpi	r16, 0xE0	; 224
 420:	59 01       	movw	r10, r18
 422:	00 00       	nop
 424:	00 00       	nop
 426:	14 00       	.word	0x0014	; ????
 428:	00 00       	nop
 42a:	01 05       	cpc	r16, r1
 42c:	03 6e       	ori	r16, 0xE3	; 227
 42e:	00 80       	ld	r0, Z
 430:	00 3f       	cpi	r16, 0xF0	; 240
 432:	60 01       	movw	r12, r0
 434:	00 00       	nop
 436:	00 00       	nop
 438:	14 00       	.word	0x0014	; ????
 43a:	00 00       	nop
 43c:	01 05       	cpc	r16, r1
 43e:	03 35       	cpi	r16, 0x53	; 83
 440:	00 80       	ld	r0, Z
 442:	00 40       	sbci	r16, 0x00	; 0
 444:	66 01       	movw	r12, r12
 446:	00 00       	nop
 448:	00 00       	nop
 44a:	14 00       	.word	0x0014	; ????
 44c:	00 00       	nop
 44e:	01 05       	cpc	r16, r1
 450:	03 43       	sbci	r16, 0x33	; 51
 452:	00 80       	ld	r0, Z
 454:	00 41       	sbci	r16, 0x10	; 16
 456:	6c 01       	movw	r12, r24
 458:	00 00       	nop
 45a:	00 00       	nop
 45c:	14 00       	.word	0x0014	; ????
 45e:	00 00       	nop
 460:	01 05       	cpc	r16, r1
 462:	03 70       	andi	r16, 0x03	; 3
 464:	00 80       	ld	r0, Z
 466:	00 42       	sbci	r16, 0x20	; 32
 468:	73 01       	movw	r14, r6
 46a:	00 00       	nop
 46c:	00 00       	nop
 46e:	14 00       	.word	0x0014	; ????
 470:	00 00       	nop
 472:	01 05       	cpc	r16, r1
 474:	03 37       	cpi	r16, 0x73	; 115
 476:	00 80       	ld	r0, Z
 478:	00 43       	sbci	r16, 0x30	; 48
 47a:	79 01       	movw	r14, r18
 47c:	00 00       	nop
 47e:	00 00       	nop
 480:	14 00       	.word	0x0014	; ????
 482:	00 00       	nop
 484:	01 05       	cpc	r16, r1
 486:	03 b0       	in	r0, 0x03	; 3
 488:	00 80       	ld	r0, Z
 48a:	00 44       	sbci	r16, 0x40	; 64
 48c:	80 01       	movw	r16, r0
 48e:	00 00       	nop
 490:	00 00       	nop
 492:	14 00       	.word	0x0014	; ????
 494:	00 00       	nop
 496:	01 05       	cpc	r16, r1
 498:	03 b1       	in	r16, 0x03	; 3
 49a:	00 80       	ld	r0, Z
 49c:	00 45       	sbci	r16, 0x50	; 80
 49e:	87 01       	movw	r16, r14
 4a0:	00 00       	nop
 4a2:	00 00       	nop
 4a4:	14 00       	.word	0x0014	; ????
 4a6:	00 00       	nop
 4a8:	01 05       	cpc	r16, r1
 4aa:	03 b2       	in	r0, 0x13	; 19
 4ac:	00 80       	ld	r0, Z
 4ae:	00 46       	sbci	r16, 0x60	; 96
 4b0:	8d 01       	movw	r16, r26
 4b2:	00 00       	nop
 4b4:	00 00       	nop
 4b6:	14 00       	.word	0x0014	; ????
 4b8:	00 00       	nop
 4ba:	01 05       	cpc	r16, r1
 4bc:	03 b4       	in	r0, 0x23	; 35
 4be:	00 80       	ld	r0, Z
 4c0:	00 47       	sbci	r16, 0x70	; 112
 4c2:	93 01       	movw	r18, r6
 4c4:	00 00       	nop
 4c6:	00 00       	nop
 4c8:	14 00       	.word	0x0014	; ????
 4ca:	00 00       	nop
 4cc:	01 05       	cpc	r16, r1
 4ce:	03 b3       	in	r16, 0x13	; 19
 4d0:	00 80       	ld	r0, Z
 4d2:	00 48       	sbci	r16, 0x80	; 128
 4d4:	99 01       	movw	r18, r18
 4d6:	00 00       	nop
 4d8:	00 00       	nop
 4da:	14 00       	.word	0x0014	; ????
 4dc:	00 00       	nop
 4de:	01 05       	cpc	r16, r1
 4e0:	03 b6       	in	r0, 0x33	; 51
 4e2:	00 80       	ld	r0, Z
 4e4:	00 49       	sbci	r16, 0x90	; 144
 4e6:	9e 01       	movw	r18, r28
 4e8:	00 00       	nop
 4ea:	00 00       	nop
 4ec:	14 00       	.word	0x0014	; ????
 4ee:	00 00       	nop
 4f0:	01 05       	cpc	r16, r1
 4f2:	03 43       	sbci	r16, 0x33	; 51
 4f4:	00 80       	ld	r0, Z
 4f6:	00 4a       	sbci	r16, 0xA0	; 160
 4f8:	a4 01       	movw	r20, r8
 4fa:	00 00       	nop
 4fc:	00 00       	nop
 4fe:	14 00       	.word	0x0014	; ????
 500:	00 00       	nop
 502:	01 05       	cpc	r16, r1
 504:	03 60       	ori	r16, 0x03	; 3
 506:	00 80       	ld	r0, Z
 508:	00 4b       	sbci	r16, 0xB0	; 176
 50a:	ab 01       	movw	r20, r22
 50c:	00 00       	nop
 50e:	00 00       	nop
 510:	14 00       	.word	0x0014	; ????
 512:	00 00       	nop
 514:	01 05       	cpc	r16, r1
 516:	03 ce       	rjmp	.-1018   	; 0x11e <__data_load_end>
 518:	00 80       	ld	r0, Z
 51a:	00 4c       	sbci	r16, 0xC0	; 192
 51c:	b0 01       	movw	r22, r0
 51e:	00 00       	nop
 520:	00 00       	nop
 522:	14 00       	.word	0x0014	; ????
 524:	00 00       	nop
 526:	01 05       	cpc	r16, r1
 528:	03 c8       	rjmp	.-4090   	; 0xfffff530 <__eeprom_end+0xff7ef530>
 52a:	00 80       	ld	r0, Z
 52c:	00 4d       	sbci	r16, 0xD0	; 208
 52e:	b7 01       	movw	r22, r14
 530:	00 00       	nop
 532:	00 00       	nop
 534:	14 00       	.word	0x0014	; ????
 536:	00 00       	nop
 538:	01 05       	cpc	r16, r1
 53a:	03 c9       	rjmp	.-3578   	; 0xfffff742 <__eeprom_end+0xff7ef742>
 53c:	00 80       	ld	r0, Z
 53e:	00 4e       	sbci	r16, 0xE0	; 224
 540:	be 01       	movw	r22, r28
 542:	00 00       	nop
 544:	00 00       	nop
 546:	14 00       	.word	0x0014	; ????
 548:	00 00       	nop
 54a:	01 05       	cpc	r16, r1
 54c:	03 ca       	rjmp	.-3066   	; 0xfffff954 <__eeprom_end+0xff7ef954>
 54e:	00 80       	ld	r0, Z
 550:	00 4f       	sbci	r16, 0xF0	; 240
 552:	c5 01       	movw	r24, r10
 554:	00 00       	nop
 556:	00 00       	nop
 558:	1b 00       	.word	0x001b	; ????
 55a:	00 00       	nop
 55c:	01 05       	cpc	r16, r1
 55e:	03 cc       	rjmp	.-2042   	; 0xfffffd66 <__eeprom_end+0xff7efd66>
 560:	00 80       	ld	r0, Z
 562:	00 50       	subi	r16, 0x00	; 0
 564:	cb 01       	movw	r24, r22
 566:	00 00       	nop
 568:	00 00       	nop
 56a:	1b 00       	.word	0x001b	; ????
 56c:	00 00       	nop
 56e:	01 05       	cpc	r16, r1
 570:	03 41       	sbci	r16, 0x13	; 19
 572:	00 80       	ld	r0, Z
 574:	00 51       	subi	r16, 0x10	; 16
 576:	d0 01       	movw	r26, r0
 578:	00 00       	nop
 57a:	00 00       	nop
 57c:	14 00       	.word	0x0014	; ????
 57e:	00 00       	nop
 580:	01 05       	cpc	r16, r1
 582:	03 40       	sbci	r16, 0x03	; 3
 584:	00 80       	ld	r0, Z
 586:	00 52       	subi	r16, 0x20	; 32
 588:	d5 01       	movw	r26, r10
 58a:	00 00       	nop
 58c:	00 00       	nop
 58e:	14 00       	.word	0x0014	; ????
 590:	00 00       	nop
 592:	01 05       	cpc	r16, r1
 594:	03 3f       	cpi	r16, 0xF3	; 243
 596:	00 80       	ld	r0, Z
 598:	00 53       	subi	r16, 0x30	; 48
 59a:	da 01       	movw	r26, r20
 59c:	00 00       	nop
 59e:	00 00       	nop
 5a0:	14 00       	.word	0x0014	; ????
 5a2:	00 00       	nop
 5a4:	01 05       	cpc	r16, r1
 5a6:	03 20       	and	r0, r3
 5a8:	01 80       	ldd	r0, Z+1	; 0x01
 5aa:	00 54       	subi	r16, 0x40	; 64
 5ac:	e1 01       	movw	r28, r2
 5ae:	00 00       	nop
 5b0:	00 00       	nop
 5b2:	14 00       	.word	0x0014	; ????
 5b4:	00 00       	nop
 5b6:	01 05       	cpc	r16, r1
 5b8:	03 21       	and	r16, r3
 5ba:	01 80       	ldd	r0, Z+1	; 0x01
 5bc:	00 55       	subi	r16, 0x50	; 80
 5be:	e8 01       	movw	r28, r16
 5c0:	00 00       	nop
 5c2:	00 00       	nop
 5c4:	14 00       	.word	0x0014	; ????
 5c6:	00 00       	nop
 5c8:	01 05       	cpc	r16, r1
 5ca:	03 22       	and	r0, r19
 5cc:	01 80       	ldd	r0, Z+1	; 0x01
 5ce:	00 56       	subi	r16, 0x60	; 96
 5d0:	ef 01       	movw	r28, r30
 5d2:	00 00       	nop
 5d4:	00 00       	nop
 5d6:	1b 00       	.word	0x001b	; ????
 5d8:	00 00       	nop
 5da:	01 05       	cpc	r16, r1
 5dc:	03 24       	eor	r0, r3
 5de:	01 80       	ldd	r0, Z+1	; 0x01
 5e0:	00 57       	subi	r16, 0x70	; 112
 5e2:	f5 01       	movw	r30, r10
 5e4:	00 00       	nop
 5e6:	00 00       	nop
 5e8:	1b 00       	.word	0x001b	; ????
 5ea:	00 00       	nop
 5ec:	01 05       	cpc	r16, r1
 5ee:	03 28       	or	r0, r3
 5f0:	01 80       	ldd	r0, Z+1	; 0x01
 5f2:	00 58       	subi	r16, 0x80	; 128
 5f4:	fb 01       	movw	r30, r22
 5f6:	00 00       	nop
 5f8:	00 00       	nop
 5fa:	1b 00       	.word	0x001b	; ????
 5fc:	00 00       	nop
 5fe:	01 05       	cpc	r16, r1
 600:	03 2a       	or	r0, r19
 602:	01 80       	ldd	r0, Z+1	; 0x01
 604:	00 59       	subi	r16, 0x90	; 144
 606:	01 02       	muls	r16, r17
 608:	00 00       	nop
 60a:	00 00       	nop
 60c:	1b 00       	.word	0x001b	; ????
 60e:	00 00       	nop
 610:	01 05       	cpc	r16, r1
 612:	03 2c       	mov	r0, r3
 614:	01 80       	ldd	r0, Z+1	; 0x01
 616:	00 5a       	subi	r16, 0xA0	; 160
 618:	07 02       	muls	r16, r23
 61a:	00 00       	nop
 61c:	00 00       	nop
 61e:	1b 00       	.word	0x001b	; ????
 620:	00 00       	nop
 622:	01 05       	cpc	r16, r1
 624:	03 26       	eor	r0, r19
 626:	01 80       	ldd	r0, Z+1	; 0x01
 628:	00 5b       	subi	r16, 0xB0	; 176
 62a:	0c 02       	muls	r16, r28
 62c:	00 00       	nop
 62e:	00 00       	nop
 630:	14 00       	.word	0x0014	; ????
 632:	00 00       	nop
 634:	01 05       	cpc	r16, r1
 636:	03 73       	andi	r16, 0x33	; 51
 638:	00 80       	ld	r0, Z
 63a:	00 5c       	subi	r16, 0xC0	; 192
 63c:	13 02       	muls	r17, r19
 63e:	00 00       	nop
 640:	00 00       	nop
 642:	14 00       	.word	0x0014	; ????
 644:	00 00       	nop
 646:	01 05       	cpc	r16, r1
 648:	03 3a       	cpi	r16, 0xA3	; 163
 64a:	00 80       	ld	r0, Z
 64c:	00 5d       	subi	r16, 0xD0	; 208
 64e:	19 02       	muls	r17, r25
 650:	00 00       	nop
 652:	00 00       	nop
 654:	14 00       	.word	0x0014	; ????
 656:	00 00       	nop
 658:	01 05       	cpc	r16, r1
 65a:	03 a0       	ldd	r0, Z+35	; 0x23
 65c:	00 80       	ld	r0, Z
 65e:	00 5e       	subi	r16, 0xE0	; 224
 660:	20 02       	muls	r18, r16
 662:	00 00       	nop
 664:	00 00       	nop
 666:	14 00       	.word	0x0014	; ????
 668:	00 00       	nop
 66a:	01 05       	cpc	r16, r1
 66c:	03 a1       	ldd	r16, Z+35	; 0x23
 66e:	00 80       	ld	r0, Z
 670:	00 5f       	subi	r16, 0xF0	; 240
 672:	27 02       	muls	r18, r23
 674:	00 00       	nop
 676:	00 00       	nop
 678:	14 00       	.word	0x0014	; ????
 67a:	00 00       	nop
 67c:	01 05       	cpc	r16, r1
 67e:	03 a2       	std	Z+35, r0	; 0x23
 680:	00 80       	ld	r0, Z
 682:	00 60       	ori	r16, 0x00	; 0
 684:	2e 02       	muls	r18, r30
 686:	00 00       	nop
 688:	00 00       	nop
 68a:	1b 00       	.word	0x001b	; ????
 68c:	00 00       	nop
 68e:	01 05       	cpc	r16, r1
 690:	03 a4       	ldd	r0, Z+43	; 0x2b
 692:	00 80       	ld	r0, Z
 694:	00 61       	ori	r16, 0x10	; 16
 696:	34 02       	muls	r19, r20
 698:	00 00       	nop
 69a:	00 00       	nop
 69c:	1b 00       	.word	0x001b	; ????
 69e:	00 00       	nop
 6a0:	01 05       	cpc	r16, r1
 6a2:	03 a8       	ldd	r0, Z+51	; 0x33
 6a4:	00 80       	ld	r0, Z
 6a6:	00 62       	ori	r16, 0x20	; 32
 6a8:	3a 02       	muls	r19, r26
 6aa:	00 00       	nop
 6ac:	00 00       	nop
 6ae:	1b 00       	.word	0x001b	; ????
 6b0:	00 00       	nop
 6b2:	01 05       	cpc	r16, r1
 6b4:	03 aa       	std	Z+51, r0	; 0x33
 6b6:	00 80       	ld	r0, Z
 6b8:	00 63       	ori	r16, 0x30	; 48
 6ba:	40 02       	muls	r20, r16
 6bc:	00 00       	nop
 6be:	00 00       	nop
 6c0:	1b 00       	.word	0x001b	; ????
 6c2:	00 00       	nop
 6c4:	01 05       	cpc	r16, r1
 6c6:	03 ac       	ldd	r0, Z+59	; 0x3b
 6c8:	00 80       	ld	r0, Z
 6ca:	00 64       	ori	r16, 0x40	; 64
 6cc:	46 02       	muls	r20, r22
 6ce:	00 00       	nop
 6d0:	00 00       	nop
 6d2:	1b 00       	.word	0x001b	; ????
 6d4:	00 00       	nop
 6d6:	01 05       	cpc	r16, r1
 6d8:	03 a6       	std	Z+43, r0	; 0x2b
 6da:	00 80       	ld	r0, Z
 6dc:	00 65       	ori	r16, 0x50	; 80
 6de:	4b 02       	muls	r20, r27
 6e0:	00 00       	nop
 6e2:	00 00       	nop
 6e4:	14 00       	.word	0x0014	; ????
 6e6:	00 00       	nop
 6e8:	01 05       	cpc	r16, r1
 6ea:	03 72       	andi	r16, 0x23	; 35
 6ec:	00 80       	ld	r0, Z
 6ee:	00 66       	ori	r16, 0x60	; 96
 6f0:	52 02       	muls	r21, r18
 6f2:	00 00       	nop
 6f4:	00 00       	nop
 6f6:	14 00       	.word	0x0014	; ????
 6f8:	00 00       	nop
 6fa:	01 05       	cpc	r16, r1
 6fc:	03 39       	cpi	r16, 0x93	; 147
 6fe:	00 80       	ld	r0, Z
 700:	00 67       	ori	r16, 0x70	; 112
 702:	58 02       	muls	r21, r24
 704:	00 00       	nop
 706:	00 00       	nop
 708:	14 00       	.word	0x0014	; ????
 70a:	00 00       	nop
 70c:	01 05       	cpc	r16, r1
 70e:	03 90       	.word	0x9003	; ????
 710:	00 80       	ld	r0, Z
 712:	00 68       	ori	r16, 0x80	; 128
 714:	5f 02       	muls	r21, r31
 716:	00 00       	nop
 718:	00 00       	nop
 71a:	14 00       	.word	0x0014	; ????
 71c:	00 00       	nop
 71e:	01 05       	cpc	r16, r1
 720:	03 91       	.word	0x9103	; ????
 722:	00 80       	ld	r0, Z
 724:	00 69       	ori	r16, 0x90	; 144
 726:	66 02       	muls	r22, r22
 728:	00 00       	nop
 72a:	00 00       	nop
 72c:	14 00       	.word	0x0014	; ????
 72e:	00 00       	nop
 730:	01 05       	cpc	r16, r1
 732:	03 92       	.word	0x9203	; ????
 734:	00 80       	ld	r0, Z
 736:	00 6a       	ori	r16, 0xA0	; 160
 738:	6d 02       	muls	r22, r29
 73a:	00 00       	nop
 73c:	00 00       	nop
 73e:	1b 00       	.word	0x001b	; ????
 740:	00 00       	nop
 742:	01 05       	cpc	r16, r1
 744:	03 94       	inc	r0
 746:	00 80       	ld	r0, Z
 748:	00 6b       	ori	r16, 0xB0	; 176
 74a:	73 02       	muls	r23, r19
 74c:	00 00       	nop
 74e:	00 00       	nop
 750:	1b 00       	.word	0x001b	; ????
 752:	00 00       	nop
 754:	01 05       	cpc	r16, r1
 756:	03 98       	cbi	0x00, 3	; 0
 758:	00 80       	ld	r0, Z
 75a:	00 6c       	ori	r16, 0xC0	; 192
 75c:	79 02       	muls	r23, r25
 75e:	00 00       	nop
 760:	00 00       	nop
 762:	1b 00       	.word	0x001b	; ????
 764:	00 00       	nop
 766:	01 05       	cpc	r16, r1
 768:	03 9a       	sbi	0x00, 3	; 0
 76a:	00 80       	ld	r0, Z
 76c:	00 6d       	ori	r16, 0xD0	; 208
 76e:	7f 02       	muls	r23, r31
 770:	00 00       	nop
 772:	00 00       	nop
 774:	1b 00       	.word	0x001b	; ????
 776:	00 00       	nop
 778:	01 05       	cpc	r16, r1
 77a:	03 9c       	mul	r0, r3
 77c:	00 80       	ld	r0, Z
 77e:	00 6e       	ori	r16, 0xE0	; 224
 780:	85 02       	muls	r24, r21
 782:	00 00       	nop
 784:	00 00       	nop
 786:	1b 00       	.word	0x001b	; ????
 788:	00 00       	nop
 78a:	01 05       	cpc	r16, r1
 78c:	03 96       	adiw	r24, 0x03	; 3
 78e:	00 80       	ld	r0, Z
 790:	00 6f       	ori	r16, 0xF0	; 240
 792:	8a 02       	muls	r24, r26
 794:	00 00       	nop
 796:	00 00       	nop
 798:	14 00       	.word	0x0014	; ????
 79a:	00 00       	nop
 79c:	01 05       	cpc	r16, r1
 79e:	03 71       	andi	r16, 0x13	; 19
 7a0:	00 80       	ld	r0, Z
 7a2:	00 70       	andi	r16, 0x00	; 0
 7a4:	91 02       	muls	r25, r17
 7a6:	00 00       	nop
 7a8:	00 00       	nop
 7aa:	14 00       	.word	0x0014	; ????
 7ac:	00 00       	nop
 7ae:	01 05       	cpc	r16, r1
 7b0:	03 38       	cpi	r16, 0x83	; 131
 7b2:	00 80       	ld	r0, Z
 7b4:	00 71       	andi	r16, 0x10	; 16
 7b6:	97 02       	muls	r25, r23
 7b8:	00 00       	nop
 7ba:	00 00       	nop
 7bc:	14 00       	.word	0x0014	; ????
 7be:	00 00       	nop
 7c0:	01 05       	cpc	r16, r1
 7c2:	03 80       	ldd	r0, Z+3	; 0x03
 7c4:	00 80       	ld	r0, Z
 7c6:	00 72       	andi	r16, 0x20	; 32
 7c8:	9e 02       	muls	r25, r30
 7ca:	00 00       	nop
 7cc:	00 00       	nop
 7ce:	14 00       	.word	0x0014	; ????
 7d0:	00 00       	nop
 7d2:	01 05       	cpc	r16, r1
 7d4:	03 81       	ldd	r16, Z+3	; 0x03
 7d6:	00 80       	ld	r0, Z
 7d8:	00 73       	andi	r16, 0x30	; 48
 7da:	a5 02       	muls	r26, r21
 7dc:	00 00       	nop
 7de:	00 00       	nop
 7e0:	14 00       	.word	0x0014	; ????
 7e2:	00 00       	nop
 7e4:	01 05       	cpc	r16, r1
 7e6:	03 82       	std	Z+3, r0	; 0x03
 7e8:	00 80       	ld	r0, Z
 7ea:	00 74       	andi	r16, 0x40	; 64
 7ec:	ac 02       	muls	r26, r28
 7ee:	00 00       	nop
 7f0:	00 00       	nop
 7f2:	1b 00       	.word	0x001b	; ????
 7f4:	00 00       	nop
 7f6:	01 05       	cpc	r16, r1
 7f8:	03 84       	ldd	r0, Z+11	; 0x0b
 7fa:	00 80       	ld	r0, Z
 7fc:	00 75       	andi	r16, 0x50	; 80
 7fe:	b2 02       	muls	r27, r18
 800:	00 00       	nop
 802:	00 00       	nop
 804:	1b 00       	.word	0x001b	; ????
 806:	00 00       	nop
 808:	01 05       	cpc	r16, r1
 80a:	03 88       	ldd	r0, Z+19	; 0x13
 80c:	00 80       	ld	r0, Z
 80e:	00 76       	andi	r16, 0x60	; 96
 810:	b8 02       	muls	r27, r24
 812:	00 00       	nop
 814:	00 00       	nop
 816:	1b 00       	.word	0x001b	; ????
 818:	00 00       	nop
 81a:	01 05       	cpc	r16, r1
 81c:	03 8a       	std	Z+19, r0	; 0x13
 81e:	00 80       	ld	r0, Z
 820:	00 77       	andi	r16, 0x70	; 112
 822:	be 02       	muls	r27, r30
 824:	00 00       	nop
 826:	00 00       	nop
 828:	1b 00       	.word	0x001b	; ????
 82a:	00 00       	nop
 82c:	01 05       	cpc	r16, r1
 82e:	03 8c       	ldd	r0, Z+27	; 0x1b
 830:	00 80       	ld	r0, Z
 832:	00 78       	andi	r16, 0x80	; 128
 834:	c4 02       	muls	r28, r20
 836:	00 00       	nop
 838:	00 00       	nop
 83a:	1b 00       	.word	0x001b	; ????
 83c:	00 00       	nop
 83e:	01 05       	cpc	r16, r1
 840:	03 86       	std	Z+11, r0	; 0x0b
 842:	00 80       	ld	r0, Z
 844:	00 79       	andi	r16, 0x90	; 144
 846:	c9 02       	muls	r28, r25
 848:	00 00       	nop
 84a:	00 00       	nop
 84c:	14 00       	.word	0x0014	; ????
 84e:	00 00       	nop
 850:	01 05       	cpc	r16, r1
 852:	03 6f       	ori	r16, 0xF3	; 243
 854:	00 80       	ld	r0, Z
 856:	00 7a       	andi	r16, 0xA0	; 160
 858:	d0 02       	muls	r29, r16
 85a:	00 00       	nop
 85c:	00 00       	nop
 85e:	14 00       	.word	0x0014	; ????
 860:	00 00       	nop
 862:	01 05       	cpc	r16, r1
 864:	03 36       	cpi	r16, 0x63	; 99
 866:	00 80       	ld	r0, Z
 868:	00 7b       	andi	r16, 0xB0	; 176
 86a:	d6 02       	muls	r29, r22
 86c:	00 00       	nop
 86e:	00 00       	nop
 870:	14 00       	.word	0x0014	; ????
 872:	00 00       	nop
 874:	01 05       	cpc	r16, r1
 876:	03 51       	subi	r16, 0x13	; 19
 878:	00 80       	ld	r0, Z
 87a:	00 7c       	andi	r16, 0xC0	; 192
 87c:	db 02       	muls	r29, r27
 87e:	00 00       	nop
 880:	00 00       	nop
 882:	14 00       	.word	0x0014	; ????
 884:	00 00       	nop
 886:	01 05       	cpc	r16, r1
 888:	03 55       	subi	r16, 0x53	; 83
 88a:	00 80       	ld	r0, Z
 88c:	00 7d       	andi	r16, 0xD0	; 208
 88e:	e1 02       	muls	r30, r17
 890:	00 00       	nop
 892:	00 00       	nop
 894:	14 00       	.word	0x0014	; ????
 896:	00 00       	nop
 898:	01 05       	cpc	r16, r1
 89a:	03 54       	subi	r16, 0x43	; 67
 89c:	00 80       	ld	r0, Z
 89e:	00 7e       	andi	r16, 0xE0	; 224
 8a0:	e7 02       	muls	r30, r23
 8a2:	00 00       	nop
 8a4:	00 00       	nop
 8a6:	14 00       	.word	0x0014	; ????
 8a8:	00 00       	nop
 8aa:	01 05       	cpc	r16, r1
 8ac:	03 69       	ori	r16, 0x93	; 147
 8ae:	00 80       	ld	r0, Z
 8b0:	00 7f       	andi	r16, 0xF0	; 240
 8b2:	ed 02       	muls	r30, r29
 8b4:	00 00       	nop
 8b6:	00 00       	nop
 8b8:	14 00       	.word	0x0014	; ????
 8ba:	00 00       	nop
 8bc:	01 05       	cpc	r16, r1
 8be:	03 6a       	ori	r16, 0xA3	; 163
 8c0:	00 80       	ld	r0, Z
 8c2:	00 80       	ld	r0, Z
 8c4:	01 f3       	breq	.-64     	; 0x886 <__LOCK_REGION_LENGTH__+0x486>
 8c6:	02 00       	.word	0x0002	; ????
 8c8:	00 00       	nop
 8ca:	00 14       	cp	r0, r0
 8cc:	00 00       	nop
 8ce:	00 01       	movw	r0, r0
 8d0:	05 03       	mulsu	r16, r21
 8d2:	3d 00       	.word	0x003d	; ????
 8d4:	80 00       	.word	0x0080	; ????
 8d6:	81 01       	movw	r16, r2
 8d8:	f9 02       	muls	r31, r25
 8da:	00 00       	nop
 8dc:	00 00       	nop
 8de:	14 00       	.word	0x0014	; ????
 8e0:	00 00       	nop
 8e2:	01 05       	cpc	r16, r1
 8e4:	03 3c       	cpi	r16, 0xC3	; 195
 8e6:	00 80       	ld	r0, Z
 8e8:	00 82       	st	Z, r0
 8ea:	01 fe       	sbrs	r0, 1
 8ec:	02 00       	.word	0x0002	; ????
 8ee:	00 00       	nop
 8f0:	00 14       	cp	r0, r0
 8f2:	00 00       	nop
 8f4:	00 01       	movw	r0, r0
 8f6:	05 03       	mulsu	r16, r21
 8f8:	6d 00       	.word	0x006d	; ????
 8fa:	80 00       	.word	0x0080	; ????
 8fc:	83 01       	movw	r16, r6
 8fe:	05 03       	mulsu	r16, r21
 900:	00 00       	nop
 902:	00 00       	nop
 904:	14 00       	.word	0x0014	; ????
 906:	00 00       	nop
 908:	01 05       	cpc	r16, r1
 90a:	03 6c       	ori	r16, 0xC3	; 195
 90c:	00 80       	ld	r0, Z
 90e:	00 84       	ldd	r0, Z+8	; 0x08
 910:	01 0c       	add	r0, r1
 912:	03 00       	.word	0x0003	; ????
 914:	00 00       	nop
 916:	00 14       	cp	r0, r0
 918:	00 00       	nop
 91a:	00 01       	movw	r0, r0
 91c:	05 03       	mulsu	r16, r21
 91e:	6b 00       	.word	0x006b	; ????
 920:	80 00       	.word	0x0080	; ????
 922:	85 01       	movw	r16, r10
 924:	13 03       	mulsu	r17, r19
 926:	00 00       	nop
 928:	00 00       	nop
 92a:	14 00       	.word	0x0014	; ????
 92c:	00 00       	nop
 92e:	01 05       	cpc	r16, r1
 930:	03 3b       	cpi	r16, 0xB3	; 179
 932:	00 80       	ld	r0, Z
 934:	00 86       	std	Z+8, r0	; 0x08
 936:	01 19       	sub	r16, r1
 938:	03 00       	.word	0x0003	; ????
 93a:	00 00       	nop
 93c:	00 14       	cp	r0, r0
 93e:	00 00       	nop
 940:	00 01       	movw	r0, r0
 942:	05 03       	mulsu	r16, r21
 944:	68 00       	.word	0x0068	; ????
 946:	80 00       	.word	0x0080	; ????
 948:	87 01       	movw	r16, r14
 94a:	1f 03       	fmul	r17, r23
 94c:	00 00       	nop
 94e:	00 00       	nop
 950:	14 00       	.word	0x0014	; ????
 952:	00 00       	nop
 954:	01 05       	cpc	r16, r1
 956:	03 5f       	subi	r16, 0xF3	; 243
 958:	00 80       	ld	r0, Z
 95a:	00 88       	ldd	r0, Z+16	; 0x10
 95c:	01 24       	eor	r0, r1
 95e:	03 00       	.word	0x0003	; ????
 960:	00 00       	nop
 962:	00 1b       	sub	r16, r16
 964:	00 00       	nop
 966:	00 01       	movw	r0, r0
 968:	05 03       	mulsu	r16, r21
 96a:	5d 00       	.word	0x005d	; ????
 96c:	80 00       	.word	0x0080	; ????
 96e:	89 01       	movw	r16, r18
 970:	27 03       	mulsu	r18, r23
 972:	00 00       	nop
 974:	00 00       	nop
 976:	14 00       	.word	0x0014	; ????
 978:	00 00       	nop
 97a:	01 05       	cpc	r16, r1
 97c:	03 55       	subi	r16, 0x53	; 83
 97e:	00 80       	ld	r0, Z
 980:	00 8a       	std	Z+16, r0	; 0x10
 982:	01 2d       	mov	r16, r1
 984:	03 00       	.word	0x0003	; ????
 986:	00 00       	nop
 988:	00 14       	cp	r0, r0
 98a:	00 00       	nop
 98c:	00 01       	movw	r0, r0
 98e:	05 03       	mulsu	r16, r21
 990:	54 00       	.word	0x0054	; ????
 992:	80 00       	.word	0x0080	; ????
 994:	8b 01       	movw	r16, r22
 996:	33 03       	mulsu	r19, r19
 998:	00 00       	nop
 99a:	00 00       	nop
 99c:	14 00       	.word	0x0014	; ????
 99e:	00 00       	nop
 9a0:	01 05       	cpc	r16, r1
 9a2:	03 74       	andi	r16, 0x43	; 67
 9a4:	00 80       	ld	r0, Z
 9a6:	00 8c       	ldd	r0, Z+24	; 0x18
 9a8:	01 39       	cpi	r16, 0x91	; 145
 9aa:	03 00       	.word	0x0003	; ????
 9ac:	00 00       	nop
 9ae:	00 14       	cp	r0, r0
 9b0:	00 00       	nop
 9b2:	00 01       	movw	r0, r0
 9b4:	05 03       	mulsu	r16, r21
 9b6:	75 00       	.word	0x0075	; ????
 9b8:	80 00       	.word	0x0080	; ????
 9ba:	8d 01       	movw	r16, r26
 9bc:	3f 03       	fmul	r19, r23
 9be:	00 00       	nop
 9c0:	00 00       	nop
 9c2:	14 00       	.word	0x0014	; ????
 9c4:	00 00       	nop
 9c6:	01 05       	cpc	r16, r1
 9c8:	03 66       	ori	r16, 0x63	; 99
 9ca:	00 80       	ld	r0, Z
 9cc:	00 8e       	std	Z+24, r0	; 0x18
 9ce:	01 46       	sbci	r16, 0x61	; 97
 9d0:	03 00       	.word	0x0003	; ????
 9d2:	00 00       	nop
 9d4:	00 14       	cp	r0, r0
 9d6:	00 00       	nop
 9d8:	00 01       	movw	r0, r0
 9da:	05 03       	mulsu	r16, r21
 9dc:	61 00       	.word	0x0061	; ????
 9de:	80 00       	.word	0x0080	; ????
 9e0:	8f 01       	movw	r16, r30
 9e2:	4c 03       	fmul	r20, r20
 9e4:	00 00       	nop
 9e6:	00 00       	nop
 9e8:	14 00       	.word	0x0014	; ????
 9ea:	00 00       	nop
 9ec:	01 05       	cpc	r16, r1
 9ee:	03 53       	subi	r16, 0x33	; 51
 9f0:	00 80       	ld	r0, Z
 9f2:	00 90 01 51 	lds	r0, 0x5101	; 0x805101 <__DATA_REGION_ORIGIN__+0x4f01>
 9f6:	03 00       	.word	0x0003	; ????
 9f8:	00 00       	nop
 9fa:	00 14       	cp	r0, r0
 9fc:	00 00       	nop
 9fe:	00 01       	movw	r0, r0
 a00:	05 03       	mulsu	r16, r21
 a02:	5c 00       	.word	0x005c	; ????
 a04:	80 00       	.word	0x0080	; ????
 a06:	91 01       	movw	r18, r2
 a08:	56 03       	mulsu	r21, r22
 a0a:	00 00       	nop
 a0c:	00 00       	nop
 a0e:	14 00       	.word	0x0014	; ????
 a10:	00 00       	nop
 a12:	01 05       	cpc	r16, r1
 a14:	03 5b       	subi	r16, 0xB3	; 179
 a16:	00 80       	ld	r0, Z
 a18:	00 92 01 5c 	sts	0x5C01, r0	; 0x805c01 <__DATA_REGION_ORIGIN__+0x5a01>
 a1c:	03 00       	.word	0x0003	; ????
 a1e:	00 00       	nop
 a20:	00 14       	cp	r0, r0
 a22:	00 00       	nop
 a24:	00 01       	movw	r0, r0
 a26:	05 03       	mulsu	r16, r21
 a28:	4b 00       	.word	0x004b	; ????
 a2a:	80 00       	.word	0x0080	; ????
 a2c:	93 01       	movw	r18, r6
 a2e:	63 03       	mulsu	r22, r19
 a30:	00 00       	nop
 a32:	00 00       	nop
 a34:	14 00       	.word	0x0014	; ????
 a36:	00 00       	nop
 a38:	01 05       	cpc	r16, r1
 a3a:	03 4a       	sbci	r16, 0xA3	; 163
 a3c:	00 80       	ld	r0, Z
 a3e:	00 94       	com	r0
 a40:	01 6a       	ori	r16, 0xA1	; 161
 a42:	03 00       	.word	0x0003	; ????
 a44:	00 00       	nop
 a46:	00 14       	cp	r0, r0
 a48:	00 00       	nop
 a4a:	00 01       	movw	r0, r0
 a4c:	05 03       	mulsu	r16, r21
 a4e:	3e 00       	.word	0x003e	; ????
 a50:	80 00       	.word	0x0080	; ????
 a52:	95 01       	movw	r18, r10
 a54:	71 03       	mulsu	r23, r17
 a56:	00 00       	nop
 a58:	00 00       	nop
 a5a:	14 00       	.word	0x0014	; ????
 a5c:	00 00       	nop
 a5e:	01 05       	cpc	r16, r1
 a60:	03 65       	ori	r16, 0x53	; 83
 a62:	00 80       	ld	r0, Z
 a64:	00 96       	adiw	r24, 0x00	; 0
 a66:	01 76       	andi	r16, 0x61	; 97
 a68:	03 00       	.word	0x0003	; ????
 a6a:	00 00       	nop
 a6c:	00 14       	cp	r0, r0
 a6e:	00 00       	nop
 a70:	00 01       	movw	r0, r0
 a72:	05 03       	mulsu	r16, r21
 a74:	64 00       	.word	0x0064	; ????
 a76:	80 00       	.word	0x0080	; ????
 a78:	97 01       	movw	r18, r14
 a7a:	7b 03       	fmul	r23, r19
 a7c:	00 00       	nop
 a7e:	00 00       	nop
 a80:	14 00       	.word	0x0014	; ????
 a82:	00 00       	nop
 a84:	01 05       	cpc	r16, r1
 a86:	03 7c       	andi	r16, 0xC3	; 195
 a88:	00 80       	ld	r0, Z
 a8a:	00 98       	cbi	0x00, 0	; 0
 a8c:	01 81       	ldd	r16, Z+1	; 0x01
 a8e:	03 00       	.word	0x0003	; ????
 a90:	00 00       	nop
 a92:	00 1b       	sub	r16, r16
 a94:	00 00       	nop
 a96:	00 01       	movw	r0, r0
 a98:	05 03       	mulsu	r16, r21
 a9a:	78 00       	.word	0x0078	; ????
 a9c:	80 00       	.word	0x0080	; ????
 a9e:	99 01       	movw	r18, r18
 aa0:	85 03       	fmuls	r16, r21
 aa2:	00 00       	nop
 aa4:	00 00       	nop
 aa6:	14 00       	.word	0x0014	; ????
 aa8:	00 00       	nop
 aaa:	01 05       	cpc	r16, r1
 aac:	03 7a       	andi	r16, 0xA3	; 163
 aae:	00 80       	ld	r0, Z
 ab0:	00 9a       	sbi	0x00, 0	; 0
 ab2:	01 8c       	ldd	r0, Z+25	; 0x19
 ab4:	03 00       	.word	0x0003	; ????
 ab6:	00 00       	nop
 ab8:	00 14       	cp	r0, r0
 aba:	00 00       	nop
 abc:	00 01       	movw	r0, r0
 abe:	05 03       	mulsu	r16, r21
 ac0:	7b 00       	.word	0x007b	; ????
 ac2:	80 00       	.word	0x0080	; ????
 ac4:	9b 01       	movw	r18, r22
 ac6:	93 03       	fmuls	r17, r19
 ac8:	00 00       	nop
 aca:	00 00       	nop
 acc:	14 00       	.word	0x0014	; ????
 ace:	00 00       	nop
 ad0:	01 05       	cpc	r16, r1
 ad2:	03 7d       	andi	r16, 0xD3	; 211
 ad4:	00 80       	ld	r0, Z
 ad6:	00 9c       	mul	r0, r0
 ad8:	01 99       	sbic	0x00, 1	; 0
 ada:	03 00       	.word	0x0003	; ????
 adc:	00 00       	nop
 ade:	00 14       	cp	r0, r0
 ae0:	00 00       	nop
 ae2:	00 01       	movw	r0, r0
 ae4:	05 03       	mulsu	r16, r21
 ae6:	7e 00       	.word	0x007e	; ????
 ae8:	80 00       	.word	0x0080	; ????
 aea:	9d 01       	movw	r18, r26
 aec:	9f 03       	fmulsu	r17, r23
 aee:	00 00       	nop
 af0:	00 00       	nop
 af2:	14 00       	.word	0x0014	; ????
 af4:	00 00       	nop
 af6:	01 05       	cpc	r16, r1
 af8:	03 57       	subi	r16, 0x73	; 115
 afa:	00 80       	ld	r0, Z
 afc:	00 9e       	mul	r0, r16
 afe:	01 a6       	std	Z+41, r0	; 0x29
 b00:	03 00       	.word	0x0003	; ????
 b02:	00 00       	nop
 b04:	00 14       	cp	r0, r0
 b06:	00 00       	nop
 b08:	00 01       	movw	r0, r0
 b0a:	05 03       	mulsu	r16, r21
 b0c:	d6 00       	.word	0x00d6	; ????
 b0e:	80 00       	.word	0x0080	; ????
 b10:	9f 01       	movw	r18, r30
 b12:	ab 03       	fmulsu	r18, r19
 b14:	00 00       	nop
 b16:	00 00       	nop
 b18:	14 00       	.word	0x0014	; ????
 b1a:	00 00       	nop
 b1c:	01 05       	cpc	r16, r1
 b1e:	03 d0       	rcall	.+6      	; 0xb26 <__LOCK_REGION_LENGTH__+0x726>
 b20:	00 80       	ld	r0, Z
 b22:	00 a0       	ldd	r0, Z+32	; 0x20
 b24:	01 b2       	in	r0, 0x11	; 17
 b26:	03 00       	.word	0x0003	; ????
 b28:	00 00       	nop
 b2a:	00 14       	cp	r0, r0
 b2c:	00 00       	nop
 b2e:	00 01       	movw	r0, r0
 b30:	05 03       	mulsu	r16, r21
 b32:	d1 00       	.word	0x00d1	; ????
 b34:	80 00       	.word	0x0080	; ????
 b36:	a1 01       	movw	r20, r2
 b38:	b9 03       	fmulsu	r19, r17
 b3a:	00 00       	nop
 b3c:	00 00       	nop
 b3e:	14 00       	.word	0x0014	; ????
 b40:	00 00       	nop
 b42:	01 05       	cpc	r16, r1
 b44:	03 d2       	rcall	.+1030   	; 0xf4c <__LOCK_REGION_LENGTH__+0xb4c>
 b46:	00 80       	ld	r0, Z
 b48:	00 a2       	std	Z+32, r0	; 0x20
 b4a:	01 c0       	rjmp	.+2      	; 0xb4e <__LOCK_REGION_LENGTH__+0x74e>
 b4c:	03 00       	.word	0x0003	; ????
 b4e:	00 00       	nop
 b50:	00 1b       	sub	r16, r16
 b52:	00 00       	nop
 b54:	00 01       	movw	r0, r0
 b56:	05 03       	mulsu	r16, r21
 b58:	d4 00       	.word	0x00d4	; ????
 b5a:	80 00       	.word	0x0080	; ????
 b5c:	a3 01       	movw	r20, r6
 b5e:	c6 03       	fmuls	r20, r22
 b60:	00 00       	nop
 b62:	00 00       	nop
 b64:	14 00       	.word	0x0014	; ????
 b66:	00 00       	nop
 b68:	01 05       	cpc	r16, r1
 b6a:	03 36       	cpi	r16, 0x63	; 99
 b6c:	01 80       	ldd	r0, Z+1	; 0x01
 b6e:	00 a4       	ldd	r0, Z+40	; 0x28
 b70:	01 cb       	rjmp	.-2558   	; 0x174 <__data_load_end+0x56>
 b72:	03 00       	.word	0x0003	; ????
 b74:	00 00       	nop
 b76:	00 14       	cp	r0, r0
 b78:	00 00       	nop
 b7a:	00 01       	movw	r0, r0
 b7c:	05 03       	mulsu	r16, r21
 b7e:	30 01       	movw	r6, r0
 b80:	80 00       	.word	0x0080	; ????
 b82:	a5 01       	movw	r20, r10
 b84:	d2 03       	fmuls	r21, r18
 b86:	00 00       	nop
 b88:	00 00       	nop
 b8a:	14 00       	.word	0x0014	; ????
 b8c:	00 00       	nop
 b8e:	01 05       	cpc	r16, r1
 b90:	03 31       	cpi	r16, 0x13	; 19
 b92:	01 80       	ldd	r0, Z+1	; 0x01
 b94:	00 a6       	std	Z+40, r0	; 0x28
 b96:	01 d9       	rcall	.-3582   	; 0xfffffd9a <__eeprom_end+0xff7efd9a>
 b98:	03 00       	.word	0x0003	; ????
 b9a:	00 00       	nop
 b9c:	00 14       	cp	r0, r0
 b9e:	00 00       	nop
 ba0:	00 01       	movw	r0, r0
 ba2:	05 03       	mulsu	r16, r21
 ba4:	32 01       	movw	r6, r4
 ba6:	80 00       	.word	0x0080	; ????
 ba8:	a7 01       	movw	r20, r14
 baa:	e0 03       	fmuls	r22, r16
 bac:	00 00       	nop
 bae:	00 00       	nop
 bb0:	1b 00       	.word	0x001b	; ????
 bb2:	00 00       	nop
 bb4:	01 05       	cpc	r16, r1
 bb6:	03 34       	cpi	r16, 0x43	; 67
 bb8:	01 80       	ldd	r0, Z+1	; 0x01
	...

Disassembly of section .debug_abbrev:

00000000 <.debug_abbrev>:
   0:	01 11       	cpse	r16, r1
   2:	01 25       	eor	r16, r1
   4:	0e 10       	cpse	r0, r14
   6:	06 00       	.word	0x0006	; ????
   8:	00 02       	muls	r16, r16
   a:	24 00       	.word	0x0024	; ????
   c:	03 0e       	add	r0, r19
   e:	0b 0b       	sbc	r16, r27
  10:	3e 0b       	sbc	r19, r30
  12:	00 00       	nop
  14:	03 24       	eor	r0, r3
  16:	00 03       	mulsu	r16, r16
  18:	0e 0b       	sbc	r16, r30
  1a:	0b 3e       	cpi	r16, 0xEB	; 235
  1c:	0b 00       	.word	0x000b	; ????
  1e:	00 04       	cpc	r0, r0
  20:	01 01       	movw	r0, r2
  22:	49 13       	cpse	r20, r25
  24:	00 00       	nop
  26:	05 21       	and	r16, r5
  28:	00 49       	sbci	r16, 0x90	; 144
  2a:	13 2f       	mov	r17, r19
  2c:	05 00       	.word	0x0005	; ????
  2e:	00 06       	cpc	r0, r16
  30:	34 00       	.word	0x0034	; ????
  32:	03 0e       	add	r0, r19
  34:	3a 0b       	sbc	r19, r26
  36:	3b 0b       	sbc	r19, r27
  38:	49 13       	cpse	r20, r25
  3a:	3f 0c       	add	r3, r15
  3c:	02 0a       	sbc	r0, r18
  3e:	00 00       	nop
  40:	07 34       	cpi	r16, 0x47	; 71
  42:	00 03       	mulsu	r16, r16
  44:	0e 3a       	cpi	r16, 0xAE	; 174
  46:	0b 3b       	cpi	r16, 0xBB	; 187
  48:	0b 49       	sbci	r16, 0x9B	; 155
  4a:	13 3f       	cpi	r17, 0xF3	; 243
  4c:	0c 02       	muls	r16, r28
  4e:	0a 00       	.word	0x000a	; ????
  50:	00 08       	sbc	r0, r0
  52:	34 00       	.word	0x0034	; ????
  54:	03 0e       	add	r0, r19
  56:	3a 0b       	sbc	r19, r26
  58:	3b 0b       	sbc	r19, r27
  5a:	49 13       	cpse	r20, r25
  5c:	3f 0c       	add	r3, r15
  5e:	02 0a       	sbc	r0, r18
  60:	00 00       	nop
  62:	09 34       	cpi	r16, 0x49	; 73
  64:	00 03       	mulsu	r16, r16
  66:	0e 3a       	cpi	r16, 0xAE	; 174
  68:	0b 3b       	cpi	r16, 0xBB	; 187
  6a:	0b 49       	sbci	r16, 0x9B	; 155
  6c:	13 3f       	cpi	r17, 0xF3	; 243
  6e:	0c 02       	muls	r16, r28
  70:	0a 00       	.word	0x000a	; ????
  72:	00 0a       	sbc	r0, r16
  74:	34 00       	.word	0x0034	; ????
  76:	03 0e       	add	r0, r19
  78:	3a 0b       	sbc	r19, r26
  7a:	3b 0b       	sbc	r19, r27
  7c:	49 13       	cpse	r20, r25
  7e:	3f 0c       	add	r3, r15
  80:	02 0a       	sbc	r0, r18
  82:	00 00       	nop
  84:	0b 34       	cpi	r16, 0x4B	; 75
  86:	00 03       	mulsu	r16, r16
  88:	0e 3a       	cpi	r16, 0xAE	; 174
  8a:	0b 3b       	cpi	r16, 0xBB	; 187
  8c:	0b 49       	sbci	r16, 0x9B	; 155
  8e:	13 3f       	cpi	r17, 0xF3	; 243
  90:	0c 02       	muls	r16, r28
  92:	0a 00       	.word	0x000a	; ????
  94:	00 0c       	add	r0, r0
  96:	34 00       	.word	0x0034	; ????
  98:	03 0e       	add	r0, r19
  9a:	3a 0b       	sbc	r19, r26
  9c:	3b 0b       	sbc	r19, r27
  9e:	49 13       	cpse	r20, r25
  a0:	3f 0c       	add	r3, r15
  a2:	02 0a       	sbc	r0, r18
  a4:	00 00       	nop
  a6:	0d 34       	cpi	r16, 0x4D	; 77
  a8:	00 03       	mulsu	r16, r16
  aa:	0e 3a       	cpi	r16, 0xAE	; 174
  ac:	0b 3b       	cpi	r16, 0xBB	; 187
  ae:	0b 49       	sbci	r16, 0x9B	; 155
  b0:	13 3f       	cpi	r17, 0xF3	; 243
  b2:	0c 02       	muls	r16, r28
  b4:	0a 00       	.word	0x000a	; ????
  b6:	00 0e       	add	r0, r16
  b8:	34 00       	.word	0x0034	; ????
  ba:	03 0e       	add	r0, r19
  bc:	3a 0b       	sbc	r19, r26
  be:	3b 0b       	sbc	r19, r27
  c0:	49 13       	cpse	r20, r25
  c2:	3f 0c       	add	r3, r15
  c4:	02 0a       	sbc	r0, r18
  c6:	00 00       	nop
  c8:	0f 34       	cpi	r16, 0x4F	; 79
  ca:	00 03       	mulsu	r16, r16
  cc:	0e 3a       	cpi	r16, 0xAE	; 174
  ce:	0b 3b       	cpi	r16, 0xBB	; 187
  d0:	0b 49       	sbci	r16, 0x9B	; 155
  d2:	13 3f       	cpi	r17, 0xF3	; 243
  d4:	0c 02       	muls	r16, r28
  d6:	0a 00       	.word	0x000a	; ????
  d8:	00 10       	cpse	r0, r0
  da:	34 00       	.word	0x0034	; ????
  dc:	03 0e       	add	r0, r19
  de:	3a 0b       	sbc	r19, r26
  e0:	3b 0b       	sbc	r19, r27
  e2:	49 13       	cpse	r20, r25
  e4:	3f 0c       	add	r3, r15
  e6:	02 0a       	sbc	r0, r18
  e8:	00 00       	nop
  ea:	11 34       	cpi	r17, 0x41	; 65
  ec:	00 03       	mulsu	r16, r16
  ee:	0e 3a       	cpi	r16, 0xAE	; 174
  f0:	0b 3b       	cpi	r16, 0xBB	; 187
  f2:	0b 49       	sbci	r16, 0x9B	; 155
  f4:	13 3f       	cpi	r17, 0xF3	; 243
  f6:	0c 02       	muls	r16, r28
  f8:	0a 00       	.word	0x000a	; ????
  fa:	00 12       	cpse	r0, r16
  fc:	34 00       	.word	0x0034	; ????
  fe:	03 0e       	add	r0, r19
 100:	3a 0b       	sbc	r19, r26
 102:	3b 0b       	sbc	r19, r27
 104:	49 13       	cpse	r20, r25
 106:	3f 0c       	add	r3, r15
 108:	02 0a       	sbc	r0, r18
 10a:	00 00       	nop
 10c:	13 34       	cpi	r17, 0x43	; 67
 10e:	00 03       	mulsu	r16, r16
 110:	0e 3a       	cpi	r16, 0xAE	; 174
 112:	0b 3b       	cpi	r16, 0xBB	; 187
 114:	0b 49       	sbci	r16, 0x9B	; 155
 116:	13 3f       	cpi	r17, 0xF3	; 243
 118:	0c 02       	muls	r16, r28
 11a:	0a 00       	.word	0x000a	; ????
 11c:	00 14       	cp	r0, r0
 11e:	34 00       	.word	0x0034	; ????
 120:	03 0e       	add	r0, r19
 122:	3a 0b       	sbc	r19, r26
 124:	3b 0b       	sbc	r19, r27
 126:	49 13       	cpse	r20, r25
 128:	3f 0c       	add	r3, r15
 12a:	02 0a       	sbc	r0, r18
 12c:	00 00       	nop
 12e:	15 34       	cpi	r17, 0x45	; 69
 130:	00 03       	mulsu	r16, r16
 132:	0e 3a       	cpi	r16, 0xAE	; 174
 134:	0b 3b       	cpi	r16, 0xBB	; 187
 136:	0b 49       	sbci	r16, 0x9B	; 155
 138:	13 3f       	cpi	r17, 0xF3	; 243
 13a:	0c 02       	muls	r16, r28
 13c:	0a 00       	.word	0x000a	; ????
 13e:	00 16       	cp	r0, r16
 140:	34 00       	.word	0x0034	; ????
 142:	03 0e       	add	r0, r19
 144:	3a 0b       	sbc	r19, r26
 146:	3b 0b       	sbc	r19, r27
 148:	49 13       	cpse	r20, r25
 14a:	3f 0c       	add	r3, r15
 14c:	02 0a       	sbc	r0, r18
 14e:	00 00       	nop
 150:	17 34       	cpi	r17, 0x47	; 71
 152:	00 03       	mulsu	r16, r16
 154:	0e 3a       	cpi	r16, 0xAE	; 174
 156:	0b 3b       	cpi	r16, 0xBB	; 187
 158:	0b 49       	sbci	r16, 0x9B	; 155
 15a:	13 3f       	cpi	r17, 0xF3	; 243
 15c:	0c 02       	muls	r16, r28
 15e:	0a 00       	.word	0x000a	; ????
 160:	00 18       	sub	r0, r0
 162:	34 00       	.word	0x0034	; ????
 164:	03 0e       	add	r0, r19
 166:	3a 0b       	sbc	r19, r26
 168:	3b 0b       	sbc	r19, r27
 16a:	49 13       	cpse	r20, r25
 16c:	3f 0c       	add	r3, r15
 16e:	02 0a       	sbc	r0, r18
 170:	00 00       	nop
 172:	19 34       	cpi	r17, 0x49	; 73
 174:	00 03       	mulsu	r16, r16
 176:	0e 3a       	cpi	r16, 0xAE	; 174
 178:	0b 3b       	cpi	r16, 0xBB	; 187
 17a:	0b 49       	sbci	r16, 0x9B	; 155
 17c:	13 3f       	cpi	r17, 0xF3	; 243
 17e:	0c 02       	muls	r16, r28
 180:	0a 00       	.word	0x000a	; ????
 182:	00 1a       	sub	r0, r16
 184:	34 00       	.word	0x0034	; ????
 186:	03 0e       	add	r0, r19
 188:	3a 0b       	sbc	r19, r26
 18a:	3b 0b       	sbc	r19, r27
 18c:	49 13       	cpse	r20, r25
 18e:	3f 0c       	add	r3, r15
 190:	02 0a       	sbc	r0, r18
 192:	00 00       	nop
 194:	1b 34       	cpi	r17, 0x4B	; 75
 196:	00 03       	mulsu	r16, r16
 198:	0e 3a       	cpi	r16, 0xAE	; 174
 19a:	0b 3b       	cpi	r16, 0xBB	; 187
 19c:	0b 49       	sbci	r16, 0x9B	; 155
 19e:	13 3f       	cpi	r17, 0xF3	; 243
 1a0:	0c 02       	muls	r16, r28
 1a2:	0a 00       	.word	0x000a	; ????
 1a4:	00 1c       	adc	r0, r0
 1a6:	34 00       	.word	0x0034	; ????
 1a8:	03 0e       	add	r0, r19
 1aa:	3a 0b       	sbc	r19, r26
 1ac:	3b 0b       	sbc	r19, r27
 1ae:	49 13       	cpse	r20, r25
 1b0:	3f 0c       	add	r3, r15
 1b2:	02 0a       	sbc	r0, r18
 1b4:	00 00       	nop
 1b6:	1d 34       	cpi	r17, 0x4D	; 77
 1b8:	00 03       	mulsu	r16, r16
 1ba:	0e 3a       	cpi	r16, 0xAE	; 174
 1bc:	0b 3b       	cpi	r16, 0xBB	; 187
 1be:	0b 49       	sbci	r16, 0x9B	; 155
 1c0:	13 3f       	cpi	r17, 0xF3	; 243
 1c2:	0c 02       	muls	r16, r28
 1c4:	0a 00       	.word	0x000a	; ????
 1c6:	00 1e       	adc	r0, r16
 1c8:	34 00       	.word	0x0034	; ????
 1ca:	03 0e       	add	r0, r19
 1cc:	3a 0b       	sbc	r19, r26
 1ce:	3b 0b       	sbc	r19, r27
 1d0:	49 13       	cpse	r20, r25
 1d2:	3f 0c       	add	r3, r15
 1d4:	02 0a       	sbc	r0, r18
 1d6:	00 00       	nop
 1d8:	1f 34       	cpi	r17, 0x4F	; 79
 1da:	00 03       	mulsu	r16, r16
 1dc:	0e 3a       	cpi	r16, 0xAE	; 174
 1de:	0b 3b       	cpi	r16, 0xBB	; 187
 1e0:	0b 49       	sbci	r16, 0x9B	; 155
 1e2:	13 3f       	cpi	r17, 0xF3	; 243
 1e4:	0c 02       	muls	r16, r28
 1e6:	0a 00       	.word	0x000a	; ????
 1e8:	00 20       	and	r0, r0
 1ea:	34 00       	.word	0x0034	; ????
 1ec:	03 0e       	add	r0, r19
 1ee:	3a 0b       	sbc	r19, r26
 1f0:	3b 0b       	sbc	r19, r27
 1f2:	49 13       	cpse	r20, r25
 1f4:	3f 0c       	add	r3, r15
 1f6:	02 0a       	sbc	r0, r18
 1f8:	00 00       	nop
 1fa:	21 34       	cpi	r18, 0x41	; 65
 1fc:	00 03       	mulsu	r16, r16
 1fe:	0e 3a       	cpi	r16, 0xAE	; 174
 200:	0b 3b       	cpi	r16, 0xBB	; 187
 202:	0b 49       	sbci	r16, 0x9B	; 155
 204:	13 3f       	cpi	r17, 0xF3	; 243
 206:	0c 02       	muls	r16, r28
 208:	0a 00       	.word	0x000a	; ????
 20a:	00 22       	and	r0, r16
 20c:	34 00       	.word	0x0034	; ????
 20e:	03 0e       	add	r0, r19
 210:	3a 0b       	sbc	r19, r26
 212:	3b 0b       	sbc	r19, r27
 214:	49 13       	cpse	r20, r25
 216:	3f 0c       	add	r3, r15
 218:	02 0a       	sbc	r0, r18
 21a:	00 00       	nop
 21c:	23 34       	cpi	r18, 0x43	; 67
 21e:	00 03       	mulsu	r16, r16
 220:	0e 3a       	cpi	r16, 0xAE	; 174
 222:	0b 3b       	cpi	r16, 0xBB	; 187
 224:	0b 49       	sbci	r16, 0x9B	; 155
 226:	13 3f       	cpi	r17, 0xF3	; 243
 228:	0c 02       	muls	r16, r28
 22a:	0a 00       	.word	0x000a	; ????
 22c:	00 24       	eor	r0, r0
 22e:	34 00       	.word	0x0034	; ????
 230:	03 0e       	add	r0, r19
 232:	3a 0b       	sbc	r19, r26
 234:	3b 0b       	sbc	r19, r27
 236:	49 13       	cpse	r20, r25
 238:	3f 0c       	add	r3, r15
 23a:	02 0a       	sbc	r0, r18
 23c:	00 00       	nop
 23e:	25 34       	cpi	r18, 0x45	; 69
 240:	00 03       	mulsu	r16, r16
 242:	0e 3a       	cpi	r16, 0xAE	; 174
 244:	0b 3b       	cpi	r16, 0xBB	; 187
 246:	0b 49       	sbci	r16, 0x9B	; 155
 248:	13 3f       	cpi	r17, 0xF3	; 243
 24a:	0c 02       	muls	r16, r28
 24c:	0a 00       	.word	0x000a	; ????
 24e:	00 26       	eor	r0, r16
 250:	34 00       	.word	0x0034	; ????
 252:	03 0e       	add	r0, r19
 254:	3a 0b       	sbc	r19, r26
 256:	3b 0b       	sbc	r19, r27
 258:	49 13       	cpse	r20, r25
 25a:	3f 0c       	add	r3, r15
 25c:	02 0a       	sbc	r0, r18
 25e:	00 00       	nop
 260:	27 34       	cpi	r18, 0x47	; 71
 262:	00 03       	mulsu	r16, r16
 264:	0e 3a       	cpi	r16, 0xAE	; 174
 266:	0b 3b       	cpi	r16, 0xBB	; 187
 268:	0b 49       	sbci	r16, 0x9B	; 155
 26a:	13 3f       	cpi	r17, 0xF3	; 243
 26c:	0c 02       	muls	r16, r28
 26e:	0a 00       	.word	0x000a	; ????
 270:	00 28       	or	r0, r0
 272:	34 00       	.word	0x0034	; ????
 274:	03 0e       	add	r0, r19
 276:	3a 0b       	sbc	r19, r26
 278:	3b 0b       	sbc	r19, r27
 27a:	49 13       	cpse	r20, r25
 27c:	3f 0c       	add	r3, r15
 27e:	02 0a       	sbc	r0, r18
 280:	00 00       	nop
 282:	29 34       	cpi	r18, 0x49	; 73
 284:	00 03       	mulsu	r16, r16
 286:	0e 3a       	cpi	r16, 0xAE	; 174
 288:	0b 3b       	cpi	r16, 0xBB	; 187
 28a:	0b 49       	sbci	r16, 0x9B	; 155
 28c:	13 3f       	cpi	r17, 0xF3	; 243
 28e:	0c 02       	muls	r16, r28
 290:	0a 00       	.word	0x000a	; ????
 292:	00 2a       	or	r0, r16
 294:	34 00       	.word	0x0034	; ????
 296:	03 0e       	add	r0, r19
 298:	3a 0b       	sbc	r19, r26
 29a:	3b 0b       	sbc	r19, r27
 29c:	49 13       	cpse	r20, r25
 29e:	3f 0c       	add	r3, r15
 2a0:	02 0a       	sbc	r0, r18
 2a2:	00 00       	nop
 2a4:	2b 34       	cpi	r18, 0x4B	; 75
 2a6:	00 03       	mulsu	r16, r16
 2a8:	0e 3a       	cpi	r16, 0xAE	; 174
 2aa:	0b 3b       	cpi	r16, 0xBB	; 187
 2ac:	0b 49       	sbci	r16, 0x9B	; 155
 2ae:	13 3f       	cpi	r17, 0xF3	; 243
 2b0:	0c 02       	muls	r16, r28
 2b2:	0a 00       	.word	0x000a	; ????
 2b4:	00 2c       	mov	r0, r0
 2b6:	34 00       	.word	0x0034	; ????
 2b8:	03 0e       	add	r0, r19
 2ba:	3a 0b       	sbc	r19, r26
 2bc:	3b 0b       	sbc	r19, r27
 2be:	49 13       	cpse	r20, r25
 2c0:	3f 0c       	add	r3, r15
 2c2:	02 0a       	sbc	r0, r18
 2c4:	00 00       	nop
 2c6:	2d 34       	cpi	r18, 0x4D	; 77
 2c8:	00 03       	mulsu	r16, r16
 2ca:	0e 3a       	cpi	r16, 0xAE	; 174
 2cc:	0b 3b       	cpi	r16, 0xBB	; 187
 2ce:	0b 49       	sbci	r16, 0x9B	; 155
 2d0:	13 3f       	cpi	r17, 0xF3	; 243
 2d2:	0c 02       	muls	r16, r28
 2d4:	0a 00       	.word	0x000a	; ????
 2d6:	00 2e       	mov	r0, r16
 2d8:	34 00       	.word	0x0034	; ????
 2da:	03 0e       	add	r0, r19
 2dc:	3a 0b       	sbc	r19, r26
 2de:	3b 0b       	sbc	r19, r27
 2e0:	49 13       	cpse	r20, r25
 2e2:	3f 0c       	add	r3, r15
 2e4:	02 0a       	sbc	r0, r18
 2e6:	00 00       	nop
 2e8:	2f 34       	cpi	r18, 0x4F	; 79
 2ea:	00 03       	mulsu	r16, r16
 2ec:	0e 3a       	cpi	r16, 0xAE	; 174
 2ee:	0b 3b       	cpi	r16, 0xBB	; 187
 2f0:	0b 49       	sbci	r16, 0x9B	; 155
 2f2:	13 3f       	cpi	r17, 0xF3	; 243
 2f4:	0c 02       	muls	r16, r28
 2f6:	0a 00       	.word	0x000a	; ????
 2f8:	00 30       	cpi	r16, 0x00	; 0
 2fa:	34 00       	.word	0x0034	; ????
 2fc:	03 0e       	add	r0, r19
 2fe:	3a 0b       	sbc	r19, r26
 300:	3b 0b       	sbc	r19, r27
 302:	49 13       	cpse	r20, r25
 304:	3f 0c       	add	r3, r15
 306:	02 0a       	sbc	r0, r18
 308:	00 00       	nop
 30a:	31 34       	cpi	r19, 0x41	; 65
 30c:	00 03       	mulsu	r16, r16
 30e:	0e 3a       	cpi	r16, 0xAE	; 174
 310:	0b 3b       	cpi	r16, 0xBB	; 187
 312:	0b 49       	sbci	r16, 0x9B	; 155
 314:	13 3f       	cpi	r17, 0xF3	; 243
 316:	0c 02       	muls	r16, r28
 318:	0a 00       	.word	0x000a	; ????
 31a:	00 32       	cpi	r16, 0x20	; 32
 31c:	34 00       	.word	0x0034	; ????
 31e:	03 0e       	add	r0, r19
 320:	3a 0b       	sbc	r19, r26
 322:	3b 0b       	sbc	r19, r27
 324:	49 13       	cpse	r20, r25
 326:	3f 0c       	add	r3, r15
 328:	02 0a       	sbc	r0, r18
 32a:	00 00       	nop
 32c:	33 34       	cpi	r19, 0x43	; 67
 32e:	00 03       	mulsu	r16, r16
 330:	0e 3a       	cpi	r16, 0xAE	; 174
 332:	0b 3b       	cpi	r16, 0xBB	; 187
 334:	0b 49       	sbci	r16, 0x9B	; 155
 336:	13 3f       	cpi	r17, 0xF3	; 243
 338:	0c 02       	muls	r16, r28
 33a:	0a 00       	.word	0x000a	; ????
 33c:	00 34       	cpi	r16, 0x40	; 64
 33e:	34 00       	.word	0x0034	; ????
 340:	03 0e       	add	r0, r19
 342:	3a 0b       	sbc	r19, r26
 344:	3b 0b       	sbc	r19, r27
 346:	49 13       	cpse	r20, r25
 348:	3f 0c       	add	r3, r15
 34a:	02 0a       	sbc	r0, r18
 34c:	00 00       	nop
 34e:	35 34       	cpi	r19, 0x45	; 69
 350:	00 03       	mulsu	r16, r16
 352:	0e 3a       	cpi	r16, 0xAE	; 174
 354:	0b 3b       	cpi	r16, 0xBB	; 187
 356:	0b 49       	sbci	r16, 0x9B	; 155
 358:	13 3f       	cpi	r17, 0xF3	; 243
 35a:	0c 02       	muls	r16, r28
 35c:	0a 00       	.word	0x000a	; ????
 35e:	00 36       	cpi	r16, 0x60	; 96
 360:	34 00       	.word	0x0034	; ????
 362:	03 0e       	add	r0, r19
 364:	3a 0b       	sbc	r19, r26
 366:	3b 0b       	sbc	r19, r27
 368:	49 13       	cpse	r20, r25
 36a:	3f 0c       	add	r3, r15
 36c:	02 0a       	sbc	r0, r18
 36e:	00 00       	nop
 370:	37 34       	cpi	r19, 0x47	; 71
 372:	00 03       	mulsu	r16, r16
 374:	0e 3a       	cpi	r16, 0xAE	; 174
 376:	0b 3b       	cpi	r16, 0xBB	; 187
 378:	0b 49       	sbci	r16, 0x9B	; 155
 37a:	13 3f       	cpi	r17, 0xF3	; 243
 37c:	0c 02       	muls	r16, r28
 37e:	0a 00       	.word	0x000a	; ????
 380:	00 38       	cpi	r16, 0x80	; 128
 382:	34 00       	.word	0x0034	; ????
 384:	03 0e       	add	r0, r19
 386:	3a 0b       	sbc	r19, r26
 388:	3b 0b       	sbc	r19, r27
 38a:	49 13       	cpse	r20, r25
 38c:	3f 0c       	add	r3, r15
 38e:	02 0a       	sbc	r0, r18
 390:	00 00       	nop
 392:	39 34       	cpi	r19, 0x49	; 73
 394:	00 03       	mulsu	r16, r16
 396:	0e 3a       	cpi	r16, 0xAE	; 174
 398:	0b 3b       	cpi	r16, 0xBB	; 187
 39a:	0b 49       	sbci	r16, 0x9B	; 155
 39c:	13 3f       	cpi	r17, 0xF3	; 243
 39e:	0c 02       	muls	r16, r28
 3a0:	0a 00       	.word	0x000a	; ????
 3a2:	00 3a       	cpi	r16, 0xA0	; 160
 3a4:	34 00       	.word	0x0034	; ????
 3a6:	03 0e       	add	r0, r19
 3a8:	3a 0b       	sbc	r19, r26
 3aa:	3b 0b       	sbc	r19, r27
 3ac:	49 13       	cpse	r20, r25
 3ae:	3f 0c       	add	r3, r15
 3b0:	02 0a       	sbc	r0, r18
 3b2:	00 00       	nop
 3b4:	3b 34       	cpi	r19, 0x4B	; 75
 3b6:	00 03       	mulsu	r16, r16
 3b8:	0e 3a       	cpi	r16, 0xAE	; 174
 3ba:	0b 3b       	cpi	r16, 0xBB	; 187
 3bc:	0b 49       	sbci	r16, 0x9B	; 155
 3be:	13 3f       	cpi	r17, 0xF3	; 243
 3c0:	0c 02       	muls	r16, r28
 3c2:	0a 00       	.word	0x000a	; ????
 3c4:	00 3c       	cpi	r16, 0xC0	; 192
 3c6:	34 00       	.word	0x0034	; ????
 3c8:	03 0e       	add	r0, r19
 3ca:	3a 0b       	sbc	r19, r26
 3cc:	3b 0b       	sbc	r19, r27
 3ce:	49 13       	cpse	r20, r25
 3d0:	3f 0c       	add	r3, r15
 3d2:	02 0a       	sbc	r0, r18
 3d4:	00 00       	nop
 3d6:	3d 34       	cpi	r19, 0x4D	; 77
 3d8:	00 03       	mulsu	r16, r16
 3da:	0e 3a       	cpi	r16, 0xAE	; 174
 3dc:	0b 3b       	cpi	r16, 0xBB	; 187
 3de:	0b 49       	sbci	r16, 0x9B	; 155
 3e0:	13 3f       	cpi	r17, 0xF3	; 243
 3e2:	0c 02       	muls	r16, r28
 3e4:	0a 00       	.word	0x000a	; ????
 3e6:	00 3e       	cpi	r16, 0xE0	; 224
 3e8:	34 00       	.word	0x0034	; ????
 3ea:	03 0e       	add	r0, r19
 3ec:	3a 0b       	sbc	r19, r26
 3ee:	3b 0b       	sbc	r19, r27
 3f0:	49 13       	cpse	r20, r25
 3f2:	3f 0c       	add	r3, r15
 3f4:	02 0a       	sbc	r0, r18
 3f6:	00 00       	nop
 3f8:	3f 34       	cpi	r19, 0x4F	; 79
 3fa:	00 03       	mulsu	r16, r16
 3fc:	0e 3a       	cpi	r16, 0xAE	; 174
 3fe:	0b 3b       	cpi	r16, 0xBB	; 187
 400:	0b 49       	sbci	r16, 0x9B	; 155
 402:	13 3f       	cpi	r17, 0xF3	; 243
 404:	0c 02       	muls	r16, r28
 406:	0a 00       	.word	0x000a	; ????
 408:	00 40       	sbci	r16, 0x00	; 0
 40a:	34 00       	.word	0x0034	; ????
 40c:	03 0e       	add	r0, r19
 40e:	3a 0b       	sbc	r19, r26
 410:	3b 0b       	sbc	r19, r27
 412:	49 13       	cpse	r20, r25
 414:	3f 0c       	add	r3, r15
 416:	02 0a       	sbc	r0, r18
 418:	00 00       	nop
 41a:	41 34       	cpi	r20, 0x41	; 65
 41c:	00 03       	mulsu	r16, r16
 41e:	0e 3a       	cpi	r16, 0xAE	; 174
 420:	0b 3b       	cpi	r16, 0xBB	; 187
 422:	0b 49       	sbci	r16, 0x9B	; 155
 424:	13 3f       	cpi	r17, 0xF3	; 243
 426:	0c 02       	muls	r16, r28
 428:	0a 00       	.word	0x000a	; ????
 42a:	00 42       	sbci	r16, 0x20	; 32
 42c:	34 00       	.word	0x0034	; ????
 42e:	03 0e       	add	r0, r19
 430:	3a 0b       	sbc	r19, r26
 432:	3b 0b       	sbc	r19, r27
 434:	49 13       	cpse	r20, r25
 436:	3f 0c       	add	r3, r15
 438:	02 0a       	sbc	r0, r18
 43a:	00 00       	nop
 43c:	43 34       	cpi	r20, 0x43	; 67
 43e:	00 03       	mulsu	r16, r16
 440:	0e 3a       	cpi	r16, 0xAE	; 174
 442:	0b 3b       	cpi	r16, 0xBB	; 187
 444:	0b 49       	sbci	r16, 0x9B	; 155
 446:	13 3f       	cpi	r17, 0xF3	; 243
 448:	0c 02       	muls	r16, r28
 44a:	0a 00       	.word	0x000a	; ????
 44c:	00 44       	sbci	r16, 0x40	; 64
 44e:	34 00       	.word	0x0034	; ????
 450:	03 0e       	add	r0, r19
 452:	3a 0b       	sbc	r19, r26
 454:	3b 0b       	sbc	r19, r27
 456:	49 13       	cpse	r20, r25
 458:	3f 0c       	add	r3, r15
 45a:	02 0a       	sbc	r0, r18
 45c:	00 00       	nop
 45e:	45 34       	cpi	r20, 0x45	; 69
 460:	00 03       	mulsu	r16, r16
 462:	0e 3a       	cpi	r16, 0xAE	; 174
 464:	0b 3b       	cpi	r16, 0xBB	; 187
 466:	0b 49       	sbci	r16, 0x9B	; 155
 468:	13 3f       	cpi	r17, 0xF3	; 243
 46a:	0c 02       	muls	r16, r28
 46c:	0a 00       	.word	0x000a	; ????
 46e:	00 46       	sbci	r16, 0x60	; 96
 470:	34 00       	.word	0x0034	; ????
 472:	03 0e       	add	r0, r19
 474:	3a 0b       	sbc	r19, r26
 476:	3b 0b       	sbc	r19, r27
 478:	49 13       	cpse	r20, r25
 47a:	3f 0c       	add	r3, r15
 47c:	02 0a       	sbc	r0, r18
 47e:	00 00       	nop
 480:	47 34       	cpi	r20, 0x47	; 71
 482:	00 03       	mulsu	r16, r16
 484:	0e 3a       	cpi	r16, 0xAE	; 174
 486:	0b 3b       	cpi	r16, 0xBB	; 187
 488:	0b 49       	sbci	r16, 0x9B	; 155
 48a:	13 3f       	cpi	r17, 0xF3	; 243
 48c:	0c 02       	muls	r16, r28
 48e:	0a 00       	.word	0x000a	; ????
 490:	00 48       	sbci	r16, 0x80	; 128
 492:	34 00       	.word	0x0034	; ????
 494:	03 0e       	add	r0, r19
 496:	3a 0b       	sbc	r19, r26
 498:	3b 0b       	sbc	r19, r27
 49a:	49 13       	cpse	r20, r25
 49c:	3f 0c       	add	r3, r15
 49e:	02 0a       	sbc	r0, r18
 4a0:	00 00       	nop
 4a2:	49 34       	cpi	r20, 0x49	; 73
 4a4:	00 03       	mulsu	r16, r16
 4a6:	0e 3a       	cpi	r16, 0xAE	; 174
 4a8:	0b 3b       	cpi	r16, 0xBB	; 187
 4aa:	0b 49       	sbci	r16, 0x9B	; 155
 4ac:	13 3f       	cpi	r17, 0xF3	; 243
 4ae:	0c 02       	muls	r16, r28
 4b0:	0a 00       	.word	0x000a	; ????
 4b2:	00 4a       	sbci	r16, 0xA0	; 160
 4b4:	34 00       	.word	0x0034	; ????
 4b6:	03 0e       	add	r0, r19
 4b8:	3a 0b       	sbc	r19, r26
 4ba:	3b 0b       	sbc	r19, r27
 4bc:	49 13       	cpse	r20, r25
 4be:	3f 0c       	add	r3, r15
 4c0:	02 0a       	sbc	r0, r18
 4c2:	00 00       	nop
 4c4:	4b 34       	cpi	r20, 0x4B	; 75
 4c6:	00 03       	mulsu	r16, r16
 4c8:	0e 3a       	cpi	r16, 0xAE	; 174
 4ca:	0b 3b       	cpi	r16, 0xBB	; 187
 4cc:	0b 49       	sbci	r16, 0x9B	; 155
 4ce:	13 3f       	cpi	r17, 0xF3	; 243
 4d0:	0c 02       	muls	r16, r28
 4d2:	0a 00       	.word	0x000a	; ????
 4d4:	00 4c       	sbci	r16, 0xC0	; 192
 4d6:	34 00       	.word	0x0034	; ????
 4d8:	03 0e       	add	r0, r19
 4da:	3a 0b       	sbc	r19, r26
 4dc:	3b 0b       	sbc	r19, r27
 4de:	49 13       	cpse	r20, r25
 4e0:	3f 0c       	add	r3, r15
 4e2:	02 0a       	sbc	r0, r18
 4e4:	00 00       	nop
 4e6:	4d 34       	cpi	r20, 0x4D	; 77
 4e8:	00 03       	mulsu	r16, r16
 4ea:	0e 3a       	cpi	r16, 0xAE	; 174
 4ec:	0b 3b       	cpi	r16, 0xBB	; 187
 4ee:	0b 49       	sbci	r16, 0x9B	; 155
 4f0:	13 3f       	cpi	r17, 0xF3	; 243
 4f2:	0c 02       	muls	r16, r28
 4f4:	0a 00       	.word	0x000a	; ????
 4f6:	00 4e       	sbci	r16, 0xE0	; 224
 4f8:	34 00       	.word	0x0034	; ????
 4fa:	03 0e       	add	r0, r19
 4fc:	3a 0b       	sbc	r19, r26
 4fe:	3b 0b       	sbc	r19, r27
 500:	49 13       	cpse	r20, r25
 502:	3f 0c       	add	r3, r15
 504:	02 0a       	sbc	r0, r18
 506:	00 00       	nop
 508:	4f 34       	cpi	r20, 0x4F	; 79
 50a:	00 03       	mulsu	r16, r16
 50c:	0e 3a       	cpi	r16, 0xAE	; 174
 50e:	0b 3b       	cpi	r16, 0xBB	; 187
 510:	0b 49       	sbci	r16, 0x9B	; 155
 512:	13 3f       	cpi	r17, 0xF3	; 243
 514:	0c 02       	muls	r16, r28
 516:	0a 00       	.word	0x000a	; ????
 518:	00 50       	subi	r16, 0x00	; 0
 51a:	34 00       	.word	0x0034	; ????
 51c:	03 0e       	add	r0, r19
 51e:	3a 0b       	sbc	r19, r26
 520:	3b 0b       	sbc	r19, r27
 522:	49 13       	cpse	r20, r25
 524:	3f 0c       	add	r3, r15
 526:	02 0a       	sbc	r0, r18
 528:	00 00       	nop
 52a:	51 34       	cpi	r21, 0x41	; 65
 52c:	00 03       	mulsu	r16, r16
 52e:	0e 3a       	cpi	r16, 0xAE	; 174
 530:	0b 3b       	cpi	r16, 0xBB	; 187
 532:	0b 49       	sbci	r16, 0x9B	; 155
 534:	13 3f       	cpi	r17, 0xF3	; 243
 536:	0c 02       	muls	r16, r28
 538:	0a 00       	.word	0x000a	; ????
 53a:	00 52       	subi	r16, 0x20	; 32
 53c:	34 00       	.word	0x0034	; ????
 53e:	03 0e       	add	r0, r19
 540:	3a 0b       	sbc	r19, r26
 542:	3b 0b       	sbc	r19, r27
 544:	49 13       	cpse	r20, r25
 546:	3f 0c       	add	r3, r15
 548:	02 0a       	sbc	r0, r18
 54a:	00 00       	nop
 54c:	53 34       	cpi	r21, 0x43	; 67
 54e:	00 03       	mulsu	r16, r16
 550:	0e 3a       	cpi	r16, 0xAE	; 174
 552:	0b 3b       	cpi	r16, 0xBB	; 187
 554:	0b 49       	sbci	r16, 0x9B	; 155
 556:	13 3f       	cpi	r17, 0xF3	; 243
 558:	0c 02       	muls	r16, r28
 55a:	0a 00       	.word	0x000a	; ????
 55c:	00 54       	subi	r16, 0x40	; 64
 55e:	34 00       	.word	0x0034	; ????
 560:	03 0e       	add	r0, r19
 562:	3a 0b       	sbc	r19, r26
 564:	3b 0b       	sbc	r19, r27
 566:	49 13       	cpse	r20, r25
 568:	3f 0c       	add	r3, r15
 56a:	02 0a       	sbc	r0, r18
 56c:	00 00       	nop
 56e:	55 34       	cpi	r21, 0x45	; 69
 570:	00 03       	mulsu	r16, r16
 572:	0e 3a       	cpi	r16, 0xAE	; 174
 574:	0b 3b       	cpi	r16, 0xBB	; 187
 576:	0b 49       	sbci	r16, 0x9B	; 155
 578:	13 3f       	cpi	r17, 0xF3	; 243
 57a:	0c 02       	muls	r16, r28
 57c:	0a 00       	.word	0x000a	; ????
 57e:	00 56       	subi	r16, 0x60	; 96
 580:	34 00       	.word	0x0034	; ????
 582:	03 0e       	add	r0, r19
 584:	3a 0b       	sbc	r19, r26
 586:	3b 0b       	sbc	r19, r27
 588:	49 13       	cpse	r20, r25
 58a:	3f 0c       	add	r3, r15
 58c:	02 0a       	sbc	r0, r18
 58e:	00 00       	nop
 590:	57 34       	cpi	r21, 0x47	; 71
 592:	00 03       	mulsu	r16, r16
 594:	0e 3a       	cpi	r16, 0xAE	; 174
 596:	0b 3b       	cpi	r16, 0xBB	; 187
 598:	0b 49       	sbci	r16, 0x9B	; 155
 59a:	13 3f       	cpi	r17, 0xF3	; 243
 59c:	0c 02       	muls	r16, r28
 59e:	0a 00       	.word	0x000a	; ????
 5a0:	00 58       	subi	r16, 0x80	; 128
 5a2:	34 00       	.word	0x0034	; ????
 5a4:	03 0e       	add	r0, r19
 5a6:	3a 0b       	sbc	r19, r26
 5a8:	3b 0b       	sbc	r19, r27
 5aa:	49 13       	cpse	r20, r25
 5ac:	3f 0c       	add	r3, r15
 5ae:	02 0a       	sbc	r0, r18
 5b0:	00 00       	nop
 5b2:	59 34       	cpi	r21, 0x49	; 73
 5b4:	00 03       	mulsu	r16, r16
 5b6:	0e 3a       	cpi	r16, 0xAE	; 174
 5b8:	0b 3b       	cpi	r16, 0xBB	; 187
 5ba:	0b 49       	sbci	r16, 0x9B	; 155
 5bc:	13 3f       	cpi	r17, 0xF3	; 243
 5be:	0c 02       	muls	r16, r28
 5c0:	0a 00       	.word	0x000a	; ????
 5c2:	00 5a       	subi	r16, 0xA0	; 160
 5c4:	34 00       	.word	0x0034	; ????
 5c6:	03 0e       	add	r0, r19
 5c8:	3a 0b       	sbc	r19, r26
 5ca:	3b 0b       	sbc	r19, r27
 5cc:	49 13       	cpse	r20, r25
 5ce:	3f 0c       	add	r3, r15
 5d0:	02 0a       	sbc	r0, r18
 5d2:	00 00       	nop
 5d4:	5b 34       	cpi	r21, 0x4B	; 75
 5d6:	00 03       	mulsu	r16, r16
 5d8:	0e 3a       	cpi	r16, 0xAE	; 174
 5da:	0b 3b       	cpi	r16, 0xBB	; 187
 5dc:	0b 49       	sbci	r16, 0x9B	; 155
 5de:	13 3f       	cpi	r17, 0xF3	; 243
 5e0:	0c 02       	muls	r16, r28
 5e2:	0a 00       	.word	0x000a	; ????
 5e4:	00 5c       	subi	r16, 0xC0	; 192
 5e6:	34 00       	.word	0x0034	; ????
 5e8:	03 0e       	add	r0, r19
 5ea:	3a 0b       	sbc	r19, r26
 5ec:	3b 0b       	sbc	r19, r27
 5ee:	49 13       	cpse	r20, r25
 5f0:	3f 0c       	add	r3, r15
 5f2:	02 0a       	sbc	r0, r18
 5f4:	00 00       	nop
 5f6:	5d 34       	cpi	r21, 0x4D	; 77
 5f8:	00 03       	mulsu	r16, r16
 5fa:	0e 3a       	cpi	r16, 0xAE	; 174
 5fc:	0b 3b       	cpi	r16, 0xBB	; 187
 5fe:	0b 49       	sbci	r16, 0x9B	; 155
 600:	13 3f       	cpi	r17, 0xF3	; 243
 602:	0c 02       	muls	r16, r28
 604:	0a 00       	.word	0x000a	; ????
 606:	00 5e       	subi	r16, 0xE0	; 224
 608:	34 00       	.word	0x0034	; ????
 60a:	03 0e       	add	r0, r19
 60c:	3a 0b       	sbc	r19, r26
 60e:	3b 0b       	sbc	r19, r27
 610:	49 13       	cpse	r20, r25
 612:	3f 0c       	add	r3, r15
 614:	02 0a       	sbc	r0, r18
 616:	00 00       	nop
 618:	5f 34       	cpi	r21, 0x4F	; 79
 61a:	00 03       	mulsu	r16, r16
 61c:	0e 3a       	cpi	r16, 0xAE	; 174
 61e:	0b 3b       	cpi	r16, 0xBB	; 187
 620:	0b 49       	sbci	r16, 0x9B	; 155
 622:	13 3f       	cpi	r17, 0xF3	; 243
 624:	0c 02       	muls	r16, r28
 626:	0a 00       	.word	0x000a	; ????
 628:	00 60       	ori	r16, 0x00	; 0
 62a:	34 00       	.word	0x0034	; ????
 62c:	03 0e       	add	r0, r19
 62e:	3a 0b       	sbc	r19, r26
 630:	3b 0b       	sbc	r19, r27
 632:	49 13       	cpse	r20, r25
 634:	3f 0c       	add	r3, r15
 636:	02 0a       	sbc	r0, r18
 638:	00 00       	nop
 63a:	61 34       	cpi	r22, 0x41	; 65
 63c:	00 03       	mulsu	r16, r16
 63e:	0e 3a       	cpi	r16, 0xAE	; 174
 640:	0b 3b       	cpi	r16, 0xBB	; 187
 642:	0b 49       	sbci	r16, 0x9B	; 155
 644:	13 3f       	cpi	r17, 0xF3	; 243
 646:	0c 02       	muls	r16, r28
 648:	0a 00       	.word	0x000a	; ????
 64a:	00 62       	ori	r16, 0x20	; 32
 64c:	34 00       	.word	0x0034	; ????
 64e:	03 0e       	add	r0, r19
 650:	3a 0b       	sbc	r19, r26
 652:	3b 0b       	sbc	r19, r27
 654:	49 13       	cpse	r20, r25
 656:	3f 0c       	add	r3, r15
 658:	02 0a       	sbc	r0, r18
 65a:	00 00       	nop
 65c:	63 34       	cpi	r22, 0x43	; 67
 65e:	00 03       	mulsu	r16, r16
 660:	0e 3a       	cpi	r16, 0xAE	; 174
 662:	0b 3b       	cpi	r16, 0xBB	; 187
 664:	0b 49       	sbci	r16, 0x9B	; 155
 666:	13 3f       	cpi	r17, 0xF3	; 243
 668:	0c 02       	muls	r16, r28
 66a:	0a 00       	.word	0x000a	; ????
 66c:	00 64       	ori	r16, 0x40	; 64
 66e:	34 00       	.word	0x0034	; ????
 670:	03 0e       	add	r0, r19
 672:	3a 0b       	sbc	r19, r26
 674:	3b 0b       	sbc	r19, r27
 676:	49 13       	cpse	r20, r25
 678:	3f 0c       	add	r3, r15
 67a:	02 0a       	sbc	r0, r18
 67c:	00 00       	nop
 67e:	65 34       	cpi	r22, 0x45	; 69
 680:	00 03       	mulsu	r16, r16
 682:	0e 3a       	cpi	r16, 0xAE	; 174
 684:	0b 3b       	cpi	r16, 0xBB	; 187
 686:	0b 49       	sbci	r16, 0x9B	; 155
 688:	13 3f       	cpi	r17, 0xF3	; 243
 68a:	0c 02       	muls	r16, r28
 68c:	0a 00       	.word	0x000a	; ????
 68e:	00 66       	ori	r16, 0x60	; 96
 690:	34 00       	.word	0x0034	; ????
 692:	03 0e       	add	r0, r19
 694:	3a 0b       	sbc	r19, r26
 696:	3b 0b       	sbc	r19, r27
 698:	49 13       	cpse	r20, r25
 69a:	3f 0c       	add	r3, r15
 69c:	02 0a       	sbc	r0, r18
 69e:	00 00       	nop
 6a0:	67 34       	cpi	r22, 0x47	; 71
 6a2:	00 03       	mulsu	r16, r16
 6a4:	0e 3a       	cpi	r16, 0xAE	; 174
 6a6:	0b 3b       	cpi	r16, 0xBB	; 187
 6a8:	0b 49       	sbci	r16, 0x9B	; 155
 6aa:	13 3f       	cpi	r17, 0xF3	; 243
 6ac:	0c 02       	muls	r16, r28
 6ae:	0a 00       	.word	0x000a	; ????
 6b0:	00 68       	ori	r16, 0x80	; 128
 6b2:	34 00       	.word	0x0034	; ????
 6b4:	03 0e       	add	r0, r19
 6b6:	3a 0b       	sbc	r19, r26
 6b8:	3b 0b       	sbc	r19, r27
 6ba:	49 13       	cpse	r20, r25
 6bc:	3f 0c       	add	r3, r15
 6be:	02 0a       	sbc	r0, r18
 6c0:	00 00       	nop
 6c2:	69 34       	cpi	r22, 0x49	; 73
 6c4:	00 03       	mulsu	r16, r16
 6c6:	0e 3a       	cpi	r16, 0xAE	; 174
 6c8:	0b 3b       	cpi	r16, 0xBB	; 187
 6ca:	0b 49       	sbci	r16, 0x9B	; 155
 6cc:	13 3f       	cpi	r17, 0xF3	; 243
 6ce:	0c 02       	muls	r16, r28
 6d0:	0a 00       	.word	0x000a	; ????
 6d2:	00 6a       	ori	r16, 0xA0	; 160
 6d4:	34 00       	.word	0x0034	; ????
 6d6:	03 0e       	add	r0, r19
 6d8:	3a 0b       	sbc	r19, r26
 6da:	3b 0b       	sbc	r19, r27
 6dc:	49 13       	cpse	r20, r25
 6de:	3f 0c       	add	r3, r15
 6e0:	02 0a       	sbc	r0, r18
 6e2:	00 00       	nop
 6e4:	6b 34       	cpi	r22, 0x4B	; 75
 6e6:	00 03       	mulsu	r16, r16
 6e8:	0e 3a       	cpi	r16, 0xAE	; 174
 6ea:	0b 3b       	cpi	r16, 0xBB	; 187
 6ec:	0b 49       	sbci	r16, 0x9B	; 155
 6ee:	13 3f       	cpi	r17, 0xF3	; 243
 6f0:	0c 02       	muls	r16, r28
 6f2:	0a 00       	.word	0x000a	; ????
 6f4:	00 6c       	ori	r16, 0xC0	; 192
 6f6:	34 00       	.word	0x0034	; ????
 6f8:	03 0e       	add	r0, r19
 6fa:	3a 0b       	sbc	r19, r26
 6fc:	3b 0b       	sbc	r19, r27
 6fe:	49 13       	cpse	r20, r25
 700:	3f 0c       	add	r3, r15
 702:	02 0a       	sbc	r0, r18
 704:	00 00       	nop
 706:	6d 34       	cpi	r22, 0x4D	; 77
 708:	00 03       	mulsu	r16, r16
 70a:	0e 3a       	cpi	r16, 0xAE	; 174
 70c:	0b 3b       	cpi	r16, 0xBB	; 187
 70e:	0b 49       	sbci	r16, 0x9B	; 155
 710:	13 3f       	cpi	r17, 0xF3	; 243
 712:	0c 02       	muls	r16, r28
 714:	0a 00       	.word	0x000a	; ????
 716:	00 6e       	ori	r16, 0xE0	; 224
 718:	34 00       	.word	0x0034	; ????
 71a:	03 0e       	add	r0, r19
 71c:	3a 0b       	sbc	r19, r26
 71e:	3b 0b       	sbc	r19, r27
 720:	49 13       	cpse	r20, r25
 722:	3f 0c       	add	r3, r15
 724:	02 0a       	sbc	r0, r18
 726:	00 00       	nop
 728:	6f 34       	cpi	r22, 0x4F	; 79
 72a:	00 03       	mulsu	r16, r16
 72c:	0e 3a       	cpi	r16, 0xAE	; 174
 72e:	0b 3b       	cpi	r16, 0xBB	; 187
 730:	0b 49       	sbci	r16, 0x9B	; 155
 732:	13 3f       	cpi	r17, 0xF3	; 243
 734:	0c 02       	muls	r16, r28
 736:	0a 00       	.word	0x000a	; ????
 738:	00 70       	andi	r16, 0x00	; 0
 73a:	34 00       	.word	0x0034	; ????
 73c:	03 0e       	add	r0, r19
 73e:	3a 0b       	sbc	r19, r26
 740:	3b 0b       	sbc	r19, r27
 742:	49 13       	cpse	r20, r25
 744:	3f 0c       	add	r3, r15
 746:	02 0a       	sbc	r0, r18
 748:	00 00       	nop
 74a:	71 34       	cpi	r23, 0x41	; 65
 74c:	00 03       	mulsu	r16, r16
 74e:	0e 3a       	cpi	r16, 0xAE	; 174
 750:	0b 3b       	cpi	r16, 0xBB	; 187
 752:	0b 49       	sbci	r16, 0x9B	; 155
 754:	13 3f       	cpi	r17, 0xF3	; 243
 756:	0c 02       	muls	r16, r28
 758:	0a 00       	.word	0x000a	; ????
 75a:	00 72       	andi	r16, 0x20	; 32
 75c:	34 00       	.word	0x0034	; ????
 75e:	03 0e       	add	r0, r19
 760:	3a 0b       	sbc	r19, r26
 762:	3b 0b       	sbc	r19, r27
 764:	49 13       	cpse	r20, r25
 766:	3f 0c       	add	r3, r15
 768:	02 0a       	sbc	r0, r18
 76a:	00 00       	nop
 76c:	73 34       	cpi	r23, 0x43	; 67
 76e:	00 03       	mulsu	r16, r16
 770:	0e 3a       	cpi	r16, 0xAE	; 174
 772:	0b 3b       	cpi	r16, 0xBB	; 187
 774:	0b 49       	sbci	r16, 0x9B	; 155
 776:	13 3f       	cpi	r17, 0xF3	; 243
 778:	0c 02       	muls	r16, r28
 77a:	0a 00       	.word	0x000a	; ????
 77c:	00 74       	andi	r16, 0x40	; 64
 77e:	34 00       	.word	0x0034	; ????
 780:	03 0e       	add	r0, r19
 782:	3a 0b       	sbc	r19, r26
 784:	3b 0b       	sbc	r19, r27
 786:	49 13       	cpse	r20, r25
 788:	3f 0c       	add	r3, r15
 78a:	02 0a       	sbc	r0, r18
 78c:	00 00       	nop
 78e:	75 34       	cpi	r23, 0x45	; 69
 790:	00 03       	mulsu	r16, r16
 792:	0e 3a       	cpi	r16, 0xAE	; 174
 794:	0b 3b       	cpi	r16, 0xBB	; 187
 796:	0b 49       	sbci	r16, 0x9B	; 155
 798:	13 3f       	cpi	r17, 0xF3	; 243
 79a:	0c 02       	muls	r16, r28
 79c:	0a 00       	.word	0x000a	; ????
 79e:	00 76       	andi	r16, 0x60	; 96
 7a0:	34 00       	.word	0x0034	; ????
 7a2:	03 0e       	add	r0, r19
 7a4:	3a 0b       	sbc	r19, r26
 7a6:	3b 0b       	sbc	r19, r27
 7a8:	49 13       	cpse	r20, r25
 7aa:	3f 0c       	add	r3, r15
 7ac:	02 0a       	sbc	r0, r18
 7ae:	00 00       	nop
 7b0:	77 34       	cpi	r23, 0x47	; 71
 7b2:	00 03       	mulsu	r16, r16
 7b4:	0e 3a       	cpi	r16, 0xAE	; 174
 7b6:	0b 3b       	cpi	r16, 0xBB	; 187
 7b8:	0b 49       	sbci	r16, 0x9B	; 155
 7ba:	13 3f       	cpi	r17, 0xF3	; 243
 7bc:	0c 02       	muls	r16, r28
 7be:	0a 00       	.word	0x000a	; ????
 7c0:	00 78       	andi	r16, 0x80	; 128
 7c2:	34 00       	.word	0x0034	; ????
 7c4:	03 0e       	add	r0, r19
 7c6:	3a 0b       	sbc	r19, r26
 7c8:	3b 0b       	sbc	r19, r27
 7ca:	49 13       	cpse	r20, r25
 7cc:	3f 0c       	add	r3, r15
 7ce:	02 0a       	sbc	r0, r18
 7d0:	00 00       	nop
 7d2:	79 34       	cpi	r23, 0x49	; 73
 7d4:	00 03       	mulsu	r16, r16
 7d6:	0e 3a       	cpi	r16, 0xAE	; 174
 7d8:	0b 3b       	cpi	r16, 0xBB	; 187
 7da:	0b 49       	sbci	r16, 0x9B	; 155
 7dc:	13 3f       	cpi	r17, 0xF3	; 243
 7de:	0c 02       	muls	r16, r28
 7e0:	0a 00       	.word	0x000a	; ????
 7e2:	00 7a       	andi	r16, 0xA0	; 160
 7e4:	34 00       	.word	0x0034	; ????
 7e6:	03 0e       	add	r0, r19
 7e8:	3a 0b       	sbc	r19, r26
 7ea:	3b 0b       	sbc	r19, r27
 7ec:	49 13       	cpse	r20, r25
 7ee:	3f 0c       	add	r3, r15
 7f0:	02 0a       	sbc	r0, r18
 7f2:	00 00       	nop
 7f4:	7b 34       	cpi	r23, 0x4B	; 75
 7f6:	00 03       	mulsu	r16, r16
 7f8:	0e 3a       	cpi	r16, 0xAE	; 174
 7fa:	0b 3b       	cpi	r16, 0xBB	; 187
 7fc:	0b 49       	sbci	r16, 0x9B	; 155
 7fe:	13 3f       	cpi	r17, 0xF3	; 243
 800:	0c 02       	muls	r16, r28
 802:	0a 00       	.word	0x000a	; ????
 804:	00 7c       	andi	r16, 0xC0	; 192
 806:	34 00       	.word	0x0034	; ????
 808:	03 0e       	add	r0, r19
 80a:	3a 0b       	sbc	r19, r26
 80c:	3b 0b       	sbc	r19, r27
 80e:	49 13       	cpse	r20, r25
 810:	3f 0c       	add	r3, r15
 812:	02 0a       	sbc	r0, r18
 814:	00 00       	nop
 816:	7d 34       	cpi	r23, 0x4D	; 77
 818:	00 03       	mulsu	r16, r16
 81a:	0e 3a       	cpi	r16, 0xAE	; 174
 81c:	0b 3b       	cpi	r16, 0xBB	; 187
 81e:	0b 49       	sbci	r16, 0x9B	; 155
 820:	13 3f       	cpi	r17, 0xF3	; 243
 822:	0c 02       	muls	r16, r28
 824:	0a 00       	.word	0x000a	; ????
 826:	00 7e       	andi	r16, 0xE0	; 224
 828:	34 00       	.word	0x0034	; ????
 82a:	03 0e       	add	r0, r19
 82c:	3a 0b       	sbc	r19, r26
 82e:	3b 0b       	sbc	r19, r27
 830:	49 13       	cpse	r20, r25
 832:	3f 0c       	add	r3, r15
 834:	02 0a       	sbc	r0, r18
 836:	00 00       	nop
 838:	7f 34       	cpi	r23, 0x4F	; 79
 83a:	00 03       	mulsu	r16, r16
 83c:	0e 3a       	cpi	r16, 0xAE	; 174
 83e:	0b 3b       	cpi	r16, 0xBB	; 187
 840:	0b 49       	sbci	r16, 0x9B	; 155
 842:	13 3f       	cpi	r17, 0xF3	; 243
 844:	0c 02       	muls	r16, r28
 846:	0a 00       	.word	0x000a	; ????
 848:	00 80       	ld	r0, Z
 84a:	01 34       	cpi	r16, 0x41	; 65
 84c:	00 03       	mulsu	r16, r16
 84e:	0e 3a       	cpi	r16, 0xAE	; 174
 850:	0b 3b       	cpi	r16, 0xBB	; 187
 852:	0b 49       	sbci	r16, 0x9B	; 155
 854:	13 3f       	cpi	r17, 0xF3	; 243
 856:	0c 02       	muls	r16, r28
 858:	0a 00       	.word	0x000a	; ????
 85a:	00 81       	ld	r16, Z
 85c:	01 34       	cpi	r16, 0x41	; 65
 85e:	00 03       	mulsu	r16, r16
 860:	0e 3a       	cpi	r16, 0xAE	; 174
 862:	0b 3b       	cpi	r16, 0xBB	; 187
 864:	0b 49       	sbci	r16, 0x9B	; 155
 866:	13 3f       	cpi	r17, 0xF3	; 243
 868:	0c 02       	muls	r16, r28
 86a:	0a 00       	.word	0x000a	; ????
 86c:	00 82       	st	Z, r0
 86e:	01 34       	cpi	r16, 0x41	; 65
 870:	00 03       	mulsu	r16, r16
 872:	0e 3a       	cpi	r16, 0xAE	; 174
 874:	0b 3b       	cpi	r16, 0xBB	; 187
 876:	0b 49       	sbci	r16, 0x9B	; 155
 878:	13 3f       	cpi	r17, 0xF3	; 243
 87a:	0c 02       	muls	r16, r28
 87c:	0a 00       	.word	0x000a	; ????
 87e:	00 83       	st	Z, r16
 880:	01 34       	cpi	r16, 0x41	; 65
 882:	00 03       	mulsu	r16, r16
 884:	0e 3a       	cpi	r16, 0xAE	; 174
 886:	0b 3b       	cpi	r16, 0xBB	; 187
 888:	0b 49       	sbci	r16, 0x9B	; 155
 88a:	13 3f       	cpi	r17, 0xF3	; 243
 88c:	0c 02       	muls	r16, r28
 88e:	0a 00       	.word	0x000a	; ????
 890:	00 84       	ldd	r0, Z+8	; 0x08
 892:	01 34       	cpi	r16, 0x41	; 65
 894:	00 03       	mulsu	r16, r16
 896:	0e 3a       	cpi	r16, 0xAE	; 174
 898:	0b 3b       	cpi	r16, 0xBB	; 187
 89a:	0b 49       	sbci	r16, 0x9B	; 155
 89c:	13 3f       	cpi	r17, 0xF3	; 243
 89e:	0c 02       	muls	r16, r28
 8a0:	0a 00       	.word	0x000a	; ????
 8a2:	00 85       	ldd	r16, Z+8	; 0x08
 8a4:	01 34       	cpi	r16, 0x41	; 65
 8a6:	00 03       	mulsu	r16, r16
 8a8:	0e 3a       	cpi	r16, 0xAE	; 174
 8aa:	0b 3b       	cpi	r16, 0xBB	; 187
 8ac:	0b 49       	sbci	r16, 0x9B	; 155
 8ae:	13 3f       	cpi	r17, 0xF3	; 243
 8b0:	0c 02       	muls	r16, r28
 8b2:	0a 00       	.word	0x000a	; ????
 8b4:	00 86       	std	Z+8, r0	; 0x08
 8b6:	01 34       	cpi	r16, 0x41	; 65
 8b8:	00 03       	mulsu	r16, r16
 8ba:	0e 3a       	cpi	r16, 0xAE	; 174
 8bc:	0b 3b       	cpi	r16, 0xBB	; 187
 8be:	0b 49       	sbci	r16, 0x9B	; 155
 8c0:	13 3f       	cpi	r17, 0xF3	; 243
 8c2:	0c 02       	muls	r16, r28
 8c4:	0a 00       	.word	0x000a	; ????
 8c6:	00 87       	std	Z+8, r16	; 0x08
 8c8:	01 34       	cpi	r16, 0x41	; 65
 8ca:	00 03       	mulsu	r16, r16
 8cc:	0e 3a       	cpi	r16, 0xAE	; 174
 8ce:	0b 3b       	cpi	r16, 0xBB	; 187
 8d0:	0b 49       	sbci	r16, 0x9B	; 155
 8d2:	13 3f       	cpi	r17, 0xF3	; 243
 8d4:	0c 02       	muls	r16, r28
 8d6:	0a 00       	.word	0x000a	; ????
 8d8:	00 88       	ldd	r0, Z+16	; 0x10
 8da:	01 34       	cpi	r16, 0x41	; 65
 8dc:	00 03       	mulsu	r16, r16
 8de:	0e 3a       	cpi	r16, 0xAE	; 174
 8e0:	0b 3b       	cpi	r16, 0xBB	; 187
 8e2:	0b 49       	sbci	r16, 0x9B	; 155
 8e4:	13 3f       	cpi	r17, 0xF3	; 243
 8e6:	0c 02       	muls	r16, r28
 8e8:	0a 00       	.word	0x000a	; ????
 8ea:	00 89       	ldd	r16, Z+16	; 0x10
 8ec:	01 34       	cpi	r16, 0x41	; 65
 8ee:	00 03       	mulsu	r16, r16
 8f0:	0e 3a       	cpi	r16, 0xAE	; 174
 8f2:	0b 3b       	cpi	r16, 0xBB	; 187
 8f4:	0b 49       	sbci	r16, 0x9B	; 155
 8f6:	13 3f       	cpi	r17, 0xF3	; 243
 8f8:	0c 02       	muls	r16, r28
 8fa:	0a 00       	.word	0x000a	; ????
 8fc:	00 8a       	std	Z+16, r0	; 0x10
 8fe:	01 34       	cpi	r16, 0x41	; 65
 900:	00 03       	mulsu	r16, r16
 902:	0e 3a       	cpi	r16, 0xAE	; 174
 904:	0b 3b       	cpi	r16, 0xBB	; 187
 906:	0b 49       	sbci	r16, 0x9B	; 155
 908:	13 3f       	cpi	r17, 0xF3	; 243
 90a:	0c 02       	muls	r16, r28
 90c:	0a 00       	.word	0x000a	; ????
 90e:	00 8b       	std	Z+16, r16	; 0x10
 910:	01 34       	cpi	r16, 0x41	; 65
 912:	00 03       	mulsu	r16, r16
 914:	0e 3a       	cpi	r16, 0xAE	; 174
 916:	0b 3b       	cpi	r16, 0xBB	; 187
 918:	0b 49       	sbci	r16, 0x9B	; 155
 91a:	13 3f       	cpi	r17, 0xF3	; 243
 91c:	0c 02       	muls	r16, r28
 91e:	0a 00       	.word	0x000a	; ????
 920:	00 8c       	ldd	r0, Z+24	; 0x18
 922:	01 34       	cpi	r16, 0x41	; 65
 924:	00 03       	mulsu	r16, r16
 926:	0e 3a       	cpi	r16, 0xAE	; 174
 928:	0b 3b       	cpi	r16, 0xBB	; 187
 92a:	0b 49       	sbci	r16, 0x9B	; 155
 92c:	13 3f       	cpi	r17, 0xF3	; 243
 92e:	0c 02       	muls	r16, r28
 930:	0a 00       	.word	0x000a	; ????
 932:	00 8d       	ldd	r16, Z+24	; 0x18
 934:	01 34       	cpi	r16, 0x41	; 65
 936:	00 03       	mulsu	r16, r16
 938:	0e 3a       	cpi	r16, 0xAE	; 174
 93a:	0b 3b       	cpi	r16, 0xBB	; 187
 93c:	0b 49       	sbci	r16, 0x9B	; 155
 93e:	13 3f       	cpi	r17, 0xF3	; 243
 940:	0c 02       	muls	r16, r28
 942:	0a 00       	.word	0x000a	; ????
 944:	00 8e       	std	Z+24, r0	; 0x18
 946:	01 34       	cpi	r16, 0x41	; 65
 948:	00 03       	mulsu	r16, r16
 94a:	0e 3a       	cpi	r16, 0xAE	; 174
 94c:	0b 3b       	cpi	r16, 0xBB	; 187
 94e:	0b 49       	sbci	r16, 0x9B	; 155
 950:	13 3f       	cpi	r17, 0xF3	; 243
 952:	0c 02       	muls	r16, r28
 954:	0a 00       	.word	0x000a	; ????
 956:	00 8f       	std	Z+24, r16	; 0x18
 958:	01 34       	cpi	r16, 0x41	; 65
 95a:	00 03       	mulsu	r16, r16
 95c:	0e 3a       	cpi	r16, 0xAE	; 174
 95e:	0b 3b       	cpi	r16, 0xBB	; 187
 960:	0b 49       	sbci	r16, 0x9B	; 155
 962:	13 3f       	cpi	r17, 0xF3	; 243
 964:	0c 02       	muls	r16, r28
 966:	0a 00       	.word	0x000a	; ????
 968:	00 90 01 34 	lds	r0, 0x3401	; 0x803401 <__DATA_REGION_ORIGIN__+0x3201>
 96c:	00 03       	mulsu	r16, r16
 96e:	0e 3a       	cpi	r16, 0xAE	; 174
 970:	0b 3b       	cpi	r16, 0xBB	; 187
 972:	0b 49       	sbci	r16, 0x9B	; 155
 974:	13 3f       	cpi	r17, 0xF3	; 243
 976:	0c 02       	muls	r16, r28
 978:	0a 00       	.word	0x000a	; ????
 97a:	00 91 01 34 	lds	r16, 0x3401	; 0x803401 <__DATA_REGION_ORIGIN__+0x3201>
 97e:	00 03       	mulsu	r16, r16
 980:	0e 3a       	cpi	r16, 0xAE	; 174
 982:	0b 3b       	cpi	r16, 0xBB	; 187
 984:	0b 49       	sbci	r16, 0x9B	; 155
 986:	13 3f       	cpi	r17, 0xF3	; 243
 988:	0c 02       	muls	r16, r28
 98a:	0a 00       	.word	0x000a	; ????
 98c:	00 92 01 34 	sts	0x3401, r0	; 0x803401 <__DATA_REGION_ORIGIN__+0x3201>
 990:	00 03       	mulsu	r16, r16
 992:	0e 3a       	cpi	r16, 0xAE	; 174
 994:	0b 3b       	cpi	r16, 0xBB	; 187
 996:	0b 49       	sbci	r16, 0x9B	; 155
 998:	13 3f       	cpi	r17, 0xF3	; 243
 99a:	0c 02       	muls	r16, r28
 99c:	0a 00       	.word	0x000a	; ????
 99e:	00 93 01 34 	sts	0x3401, r16	; 0x803401 <__DATA_REGION_ORIGIN__+0x3201>
 9a2:	00 03       	mulsu	r16, r16
 9a4:	0e 3a       	cpi	r16, 0xAE	; 174
 9a6:	0b 3b       	cpi	r16, 0xBB	; 187
 9a8:	0b 49       	sbci	r16, 0x9B	; 155
 9aa:	13 3f       	cpi	r17, 0xF3	; 243
 9ac:	0c 02       	muls	r16, r28
 9ae:	0a 00       	.word	0x000a	; ????
 9b0:	00 94       	com	r0
 9b2:	01 34       	cpi	r16, 0x41	; 65
 9b4:	00 03       	mulsu	r16, r16
 9b6:	0e 3a       	cpi	r16, 0xAE	; 174
 9b8:	0b 3b       	cpi	r16, 0xBB	; 187
 9ba:	0b 49       	sbci	r16, 0x9B	; 155
 9bc:	13 3f       	cpi	r17, 0xF3	; 243
 9be:	0c 02       	muls	r16, r28
 9c0:	0a 00       	.word	0x000a	; ????
 9c2:	00 95       	com	r16
 9c4:	01 34       	cpi	r16, 0x41	; 65
 9c6:	00 03       	mulsu	r16, r16
 9c8:	0e 3a       	cpi	r16, 0xAE	; 174
 9ca:	0b 3b       	cpi	r16, 0xBB	; 187
 9cc:	0b 49       	sbci	r16, 0x9B	; 155
 9ce:	13 3f       	cpi	r17, 0xF3	; 243
 9d0:	0c 02       	muls	r16, r28
 9d2:	0a 00       	.word	0x000a	; ????
 9d4:	00 96       	adiw	r24, 0x00	; 0
 9d6:	01 34       	cpi	r16, 0x41	; 65
 9d8:	00 03       	mulsu	r16, r16
 9da:	0e 3a       	cpi	r16, 0xAE	; 174
 9dc:	0b 3b       	cpi	r16, 0xBB	; 187
 9de:	0b 49       	sbci	r16, 0x9B	; 155
 9e0:	13 3f       	cpi	r17, 0xF3	; 243
 9e2:	0c 02       	muls	r16, r28
 9e4:	0a 00       	.word	0x000a	; ????
 9e6:	00 97       	sbiw	r24, 0x00	; 0
 9e8:	01 34       	cpi	r16, 0x41	; 65
 9ea:	00 03       	mulsu	r16, r16
 9ec:	0e 3a       	cpi	r16, 0xAE	; 174
 9ee:	0b 3b       	cpi	r16, 0xBB	; 187
 9f0:	0b 49       	sbci	r16, 0x9B	; 155
 9f2:	13 3f       	cpi	r17, 0xF3	; 243
 9f4:	0c 02       	muls	r16, r28
 9f6:	0a 00       	.word	0x000a	; ????
 9f8:	00 98       	cbi	0x00, 0	; 0
 9fa:	01 34       	cpi	r16, 0x41	; 65
 9fc:	00 03       	mulsu	r16, r16
 9fe:	0e 3a       	cpi	r16, 0xAE	; 174
 a00:	0b 3b       	cpi	r16, 0xBB	; 187
 a02:	0b 49       	sbci	r16, 0x9B	; 155
 a04:	13 3f       	cpi	r17, 0xF3	; 243
 a06:	0c 02       	muls	r16, r28
 a08:	0a 00       	.word	0x000a	; ????
 a0a:	00 99       	sbic	0x00, 0	; 0
 a0c:	01 34       	cpi	r16, 0x41	; 65
 a0e:	00 03       	mulsu	r16, r16
 a10:	0e 3a       	cpi	r16, 0xAE	; 174
 a12:	0b 3b       	cpi	r16, 0xBB	; 187
 a14:	0b 49       	sbci	r16, 0x9B	; 155
 a16:	13 3f       	cpi	r17, 0xF3	; 243
 a18:	0c 02       	muls	r16, r28
 a1a:	0a 00       	.word	0x000a	; ????
 a1c:	00 9a       	sbi	0x00, 0	; 0
 a1e:	01 34       	cpi	r16, 0x41	; 65
 a20:	00 03       	mulsu	r16, r16
 a22:	0e 3a       	cpi	r16, 0xAE	; 174
 a24:	0b 3b       	cpi	r16, 0xBB	; 187
 a26:	0b 49       	sbci	r16, 0x9B	; 155
 a28:	13 3f       	cpi	r17, 0xF3	; 243
 a2a:	0c 02       	muls	r16, r28
 a2c:	0a 00       	.word	0x000a	; ????
 a2e:	00 9b       	sbis	0x00, 0	; 0
 a30:	01 34       	cpi	r16, 0x41	; 65
 a32:	00 03       	mulsu	r16, r16
 a34:	0e 3a       	cpi	r16, 0xAE	; 174
 a36:	0b 3b       	cpi	r16, 0xBB	; 187
 a38:	0b 49       	sbci	r16, 0x9B	; 155
 a3a:	13 3f       	cpi	r17, 0xF3	; 243
 a3c:	0c 02       	muls	r16, r28
 a3e:	0a 00       	.word	0x000a	; ????
 a40:	00 9c       	mul	r0, r0
 a42:	01 34       	cpi	r16, 0x41	; 65
 a44:	00 03       	mulsu	r16, r16
 a46:	0e 3a       	cpi	r16, 0xAE	; 174
 a48:	0b 3b       	cpi	r16, 0xBB	; 187
 a4a:	0b 49       	sbci	r16, 0x9B	; 155
 a4c:	13 3f       	cpi	r17, 0xF3	; 243
 a4e:	0c 02       	muls	r16, r28
 a50:	0a 00       	.word	0x000a	; ????
 a52:	00 9d       	mul	r16, r0
 a54:	01 34       	cpi	r16, 0x41	; 65
 a56:	00 03       	mulsu	r16, r16
 a58:	0e 3a       	cpi	r16, 0xAE	; 174
 a5a:	0b 3b       	cpi	r16, 0xBB	; 187
 a5c:	0b 49       	sbci	r16, 0x9B	; 155
 a5e:	13 3f       	cpi	r17, 0xF3	; 243
 a60:	0c 02       	muls	r16, r28
 a62:	0a 00       	.word	0x000a	; ????
 a64:	00 9e       	mul	r0, r16
 a66:	01 34       	cpi	r16, 0x41	; 65
 a68:	00 03       	mulsu	r16, r16
 a6a:	0e 3a       	cpi	r16, 0xAE	; 174
 a6c:	0b 3b       	cpi	r16, 0xBB	; 187
 a6e:	0b 49       	sbci	r16, 0x9B	; 155
 a70:	13 3f       	cpi	r17, 0xF3	; 243
 a72:	0c 02       	muls	r16, r28
 a74:	0a 00       	.word	0x000a	; ????
 a76:	00 9f       	mul	r16, r16
 a78:	01 34       	cpi	r16, 0x41	; 65
 a7a:	00 03       	mulsu	r16, r16
 a7c:	0e 3a       	cpi	r16, 0xAE	; 174
 a7e:	0b 3b       	cpi	r16, 0xBB	; 187
 a80:	0b 49       	sbci	r16, 0x9B	; 155
 a82:	13 3f       	cpi	r17, 0xF3	; 243
 a84:	0c 02       	muls	r16, r28
 a86:	0a 00       	.word	0x000a	; ????
 a88:	00 a0       	ldd	r0, Z+32	; 0x20
 a8a:	01 34       	cpi	r16, 0x41	; 65
 a8c:	00 03       	mulsu	r16, r16
 a8e:	0e 3a       	cpi	r16, 0xAE	; 174
 a90:	0b 3b       	cpi	r16, 0xBB	; 187
 a92:	0b 49       	sbci	r16, 0x9B	; 155
 a94:	13 3f       	cpi	r17, 0xF3	; 243
 a96:	0c 02       	muls	r16, r28
 a98:	0a 00       	.word	0x000a	; ????
 a9a:	00 a1       	ldd	r16, Z+32	; 0x20
 a9c:	01 34       	cpi	r16, 0x41	; 65
 a9e:	00 03       	mulsu	r16, r16
 aa0:	0e 3a       	cpi	r16, 0xAE	; 174
 aa2:	0b 3b       	cpi	r16, 0xBB	; 187
 aa4:	0b 49       	sbci	r16, 0x9B	; 155
 aa6:	13 3f       	cpi	r17, 0xF3	; 243
 aa8:	0c 02       	muls	r16, r28
 aaa:	0a 00       	.word	0x000a	; ????
 aac:	00 a2       	std	Z+32, r0	; 0x20
 aae:	01 34       	cpi	r16, 0x41	; 65
 ab0:	00 03       	mulsu	r16, r16
 ab2:	0e 3a       	cpi	r16, 0xAE	; 174
 ab4:	0b 3b       	cpi	r16, 0xBB	; 187
 ab6:	0b 49       	sbci	r16, 0x9B	; 155
 ab8:	13 3f       	cpi	r17, 0xF3	; 243
 aba:	0c 02       	muls	r16, r28
 abc:	0a 00       	.word	0x000a	; ????
 abe:	00 a3       	std	Z+32, r16	; 0x20
 ac0:	01 34       	cpi	r16, 0x41	; 65
 ac2:	00 03       	mulsu	r16, r16
 ac4:	0e 3a       	cpi	r16, 0xAE	; 174
 ac6:	0b 3b       	cpi	r16, 0xBB	; 187
 ac8:	0b 49       	sbci	r16, 0x9B	; 155
 aca:	13 3f       	cpi	r17, 0xF3	; 243
 acc:	0c 02       	muls	r16, r28
 ace:	0a 00       	.word	0x000a	; ????
 ad0:	00 a4       	ldd	r0, Z+40	; 0x28
 ad2:	01 34       	cpi	r16, 0x41	; 65
 ad4:	00 03       	mulsu	r16, r16
 ad6:	0e 3a       	cpi	r16, 0xAE	; 174
 ad8:	0b 3b       	cpi	r16, 0xBB	; 187
 ada:	0b 49       	sbci	r16, 0x9B	; 155
 adc:	13 3f       	cpi	r17, 0xF3	; 243
 ade:	0c 02       	muls	r16, r28
 ae0:	0a 00       	.word	0x000a	; ????
 ae2:	00 a5       	ldd	r16, Z+40	; 0x28
 ae4:	01 34       	cpi	r16, 0x41	; 65
 ae6:	00 03       	mulsu	r16, r16
 ae8:	0e 3a       	cpi	r16, 0xAE	; 174
 aea:	0b 3b       	cpi	r16, 0xBB	; 187
 aec:	0b 49       	sbci	r16, 0x9B	; 155
 aee:	13 3f       	cpi	r17, 0xF3	; 243
 af0:	0c 02       	muls	r16, r28
 af2:	0a 00       	.word	0x000a	; ????
 af4:	00 a6       	std	Z+40, r0	; 0x28
 af6:	01 34       	cpi	r16, 0x41	; 65
 af8:	00 03       	mulsu	r16, r16
 afa:	0e 3a       	cpi	r16, 0xAE	; 174
 afc:	0b 3b       	cpi	r16, 0xBB	; 187
 afe:	0b 49       	sbci	r16, 0x9B	; 155
 b00:	13 3f       	cpi	r17, 0xF3	; 243
 b02:	0c 02       	muls	r16, r28
 b04:	0a 00       	.word	0x000a	; ????
 b06:	00 a7       	std	Z+40, r16	; 0x28
 b08:	01 34       	cpi	r16, 0x41	; 65
 b0a:	00 03       	mulsu	r16, r16
 b0c:	0e 3a       	cpi	r16, 0xAE	; 174
 b0e:	0b 3b       	cpi	r16, 0xBB	; 187
 b10:	0b 49       	sbci	r16, 0x9B	; 155
 b12:	13 3f       	cpi	r17, 0xF3	; 243
 b14:	0c 02       	muls	r16, r28
 b16:	0a 00       	.word	0x000a	; ????
	...

Disassembly of section .debug_line:

00000000 <.debug_line>:
   0:	16 00       	.word	0x0016	; ????
   2:	00 00       	nop
   4:	02 00       	.word	0x0002	; ????
   6:	10 00       	.word	0x0010	; ????
   8:	00 00       	nop
   a:	02 01       	movw	r0, r4
   c:	fb 0e       	add	r15, r27
   e:	0a 00       	.word	0x000a	; ????
  10:	01 01       	movw	r0, r2
  12:	01 01       	movw	r0, r2
  14:	00 00       	nop
  16:	00 01       	movw	r0, r0
	...

Disassembly of section .debug_str:

00000000 <.debug_str>:
   0:	61 76       	andi	r22, 0x61	; 97
   2:	72 2d       	mov	r23, r2
   4:	6c 69       	ori	r22, 0x9C	; 156
   6:	62 63       	ori	r22, 0x32	; 50
   8:	20 32       	cpi	r18, 0x20	; 32
   a:	2e 30       	cpi	r18, 0x0E	; 14
   c:	2e 30       	cpi	r18, 0x0E	; 14
   e:	00 75       	andi	r16, 0x50	; 80
  10:	69 6e       	ori	r22, 0xE9	; 233
  12:	74 38       	cpi	r23, 0x84	; 132
  14:	5f 74       	andi	r21, 0x4F	; 79
  16:	00 75       	andi	r16, 0x50	; 80
  18:	69 6e       	ori	r22, 0xE9	; 233
  1a:	74 31       	cpi	r23, 0x14	; 20
  1c:	36 5f       	subi	r19, 0xF6	; 246
  1e:	74 00       	.word	0x0074	; ????
  20:	5f 5f       	subi	r21, 0xFF	; 255
  22:	65 65       	ori	r22, 0x55	; 85
  24:	70 72       	andi	r23, 0x20	; 32
  26:	6f 6d       	ori	r22, 0xDF	; 223
  28:	00 41       	sbci	r16, 0x10	; 16
  2a:	44 43       	sbci	r20, 0x34	; 52
  2c:	53 52       	subi	r21, 0x23	; 35
  2e:	42 00       	.word	0x0042	; ????
  30:	41 43       	sbci	r20, 0x31	; 49
  32:	53 52       	subi	r21, 0x23	; 35
  34:	00 44       	sbci	r16, 0x40	; 64
  36:	49 44       	sbci	r20, 0x49	; 73
  38:	52 31       	cpi	r21, 0x12	; 18
  3a:	00 55       	subi	r16, 0x50	; 80
  3c:	44 52       	subi	r20, 0x24	; 36
  3e:	30 00       	.word	0x0030	; ????
  40:	55 43       	sbci	r21, 0x35	; 53
  42:	53 52       	subi	r21, 0x23	; 35
  44:	30 41       	sbci	r19, 0x10	; 16
  46:	00 55       	subi	r16, 0x50	; 80
  48:	43 53       	subi	r20, 0x33	; 51
  4a:	52 30       	cpi	r21, 0x02	; 2
  4c:	42 00       	.word	0x0042	; ????
  4e:	55 43       	sbci	r21, 0x35	; 53
  50:	53 52       	subi	r21, 0x23	; 35
  52:	30 43       	sbci	r19, 0x30	; 48
  54:	00 55       	subi	r16, 0x50	; 80
  56:	42 52       	subi	r20, 0x22	; 34
  58:	52 30       	cpi	r21, 0x02	; 2
  5a:	00 54       	subi	r16, 0x40	; 64
  5c:	57 41       	sbci	r21, 0x17	; 23
  5e:	4d 52       	subi	r20, 0x2D	; 45
  60:	00 54       	subi	r16, 0x40	; 64
  62:	57 42       	sbci	r21, 0x27	; 39
  64:	52 00       	.word	0x0052	; ????
  66:	54 57       	subi	r21, 0x74	; 116
  68:	43 52       	subi	r20, 0x23	; 35
  6a:	00 54       	subi	r16, 0x40	; 64
  6c:	57 53       	subi	r21, 0x37	; 55
  6e:	52 00       	.word	0x0052	; ????
  70:	54 57       	subi	r21, 0x74	; 116
  72:	44 52       	subi	r20, 0x24	; 36
  74:	00 54       	subi	r16, 0x40	; 64
  76:	57 41       	sbci	r21, 0x17	; 23
  78:	52 00       	.word	0x0052	; ????
  7a:	53 50       	subi	r21, 0x03	; 3
  7c:	43 52       	subi	r20, 0x23	; 35
  7e:	00 53       	subi	r16, 0x30	; 48
  80:	50 53       	subi	r21, 0x30	; 48
  82:	52 00       	.word	0x0052	; ????
  84:	53 50       	subi	r21, 0x03	; 3
  86:	44 52       	subi	r20, 0x24	; 36
  88:	00 50       	subi	r16, 0x00	; 0
  8a:	4f 52       	subi	r20, 0x2F	; 47
  8c:	54 41       	sbci	r21, 0x14	; 20
  8e:	00 44       	sbci	r16, 0x40	; 64
  90:	44 52       	subi	r20, 0x24	; 36
  92:	41 00       	.word	0x0041	; ????
  94:	50 49       	sbci	r21, 0x90	; 144
  96:	4e 41       	sbci	r20, 0x1E	; 30
  98:	00 50       	subi	r16, 0x00	; 0
  9a:	4f 52       	subi	r20, 0x2F	; 47
  9c:	54 42       	sbci	r21, 0x24	; 36
  9e:	00 44       	sbci	r16, 0x40	; 64
  a0:	44 52       	subi	r20, 0x24	; 36
  a2:	42 00       	.word	0x0042	; ????
  a4:	50 49       	sbci	r21, 0x90	; 144
  a6:	4e 42       	sbci	r20, 0x2E	; 46
  a8:	00 50       	subi	r16, 0x00	; 0
  aa:	4f 52       	subi	r20, 0x2F	; 47
  ac:	54 43       	sbci	r21, 0x34	; 52
  ae:	00 44       	sbci	r16, 0x40	; 64
  b0:	44 52       	subi	r20, 0x24	; 36
  b2:	43 00       	.word	0x0043	; ????
  b4:	50 49       	sbci	r21, 0x90	; 144
  b6:	4e 43       	sbci	r20, 0x3E	; 62
  b8:	00 50       	subi	r16, 0x00	; 0
  ba:	4f 52       	subi	r20, 0x2F	; 47
  bc:	54 44       	sbci	r21, 0x44	; 68
  be:	00 44       	sbci	r16, 0x40	; 64
  c0:	44 52       	subi	r20, 0x24	; 36
  c2:	44 00       	.word	0x0044	; ????
  c4:	50 49       	sbci	r21, 0x90	; 144
  c6:	4e 44       	sbci	r20, 0x4E	; 78
  c8:	00 50       	subi	r16, 0x00	; 0
  ca:	4f 52       	subi	r20, 0x2F	; 47
  cc:	54 45       	sbci	r21, 0x54	; 84
  ce:	00 44       	sbci	r16, 0x40	; 64
  d0:	44 52       	subi	r20, 0x24	; 36
  d2:	45 00       	.word	0x0045	; ????
  d4:	50 49       	sbci	r21, 0x90	; 144
  d6:	4e 45       	sbci	r20, 0x5E	; 94
  d8:	00 50       	subi	r16, 0x00	; 0
  da:	4f 52       	subi	r20, 0x2F	; 47
  dc:	54 46       	sbci	r21, 0x64	; 100
  de:	00 44       	sbci	r16, 0x40	; 64
  e0:	44 52       	subi	r20, 0x24	; 36
  e2:	46 00       	.word	0x0046	; ????
  e4:	50 49       	sbci	r21, 0x90	; 144
  e6:	4e 46       	sbci	r20, 0x6E	; 110
  e8:	00 50       	subi	r16, 0x00	; 0
  ea:	4f 52       	subi	r20, 0x2F	; 47
  ec:	54 47       	sbci	r21, 0x74	; 116
  ee:	00 44       	sbci	r16, 0x40	; 64
  f0:	44 52       	subi	r20, 0x24	; 36
  f2:	47 00       	.word	0x0047	; ????
  f4:	50 49       	sbci	r21, 0x90	; 144
  f6:	4e 47       	sbci	r20, 0x7E	; 126
  f8:	00 50       	subi	r16, 0x00	; 0
  fa:	4f 52       	subi	r20, 0x2F	; 47
  fc:	54 48       	sbci	r21, 0x84	; 132
  fe:	00 44       	sbci	r16, 0x40	; 64
 100:	44 52       	subi	r20, 0x24	; 36
 102:	48 00       	.word	0x0048	; ????
 104:	50 49       	sbci	r21, 0x90	; 144
 106:	4e 48       	sbci	r20, 0x8E	; 142
 108:	00 50       	subi	r16, 0x00	; 0
 10a:	4f 52       	subi	r20, 0x2F	; 47
 10c:	54 4a       	sbci	r21, 0xA4	; 164
 10e:	00 44       	sbci	r16, 0x40	; 64
 110:	44 52       	subi	r20, 0x24	; 36
 112:	4a 00       	.word	0x004a	; ????
 114:	50 49       	sbci	r21, 0x90	; 144
 116:	4e 4a       	sbci	r20, 0xAE	; 174
 118:	00 50       	subi	r16, 0x00	; 0
 11a:	4f 52       	subi	r20, 0x2F	; 47
 11c:	54 4b       	sbci	r21, 0xB4	; 180
 11e:	00 44       	sbci	r16, 0x40	; 64
 120:	44 52       	subi	r20, 0x24	; 36
 122:	4b 00       	.word	0x004b	; ????
 124:	50 49       	sbci	r21, 0x90	; 144
 126:	4e 4b       	sbci	r20, 0xBE	; 190
 128:	00 50       	subi	r16, 0x00	; 0
 12a:	4f 52       	subi	r20, 0x2F	; 47
 12c:	54 4c       	sbci	r21, 0xC4	; 196
 12e:	00 44       	sbci	r16, 0x40	; 64
 130:	44 52       	subi	r20, 0x24	; 36
 132:	4c 00       	.word	0x004c	; ????
 134:	50 49       	sbci	r21, 0x90	; 144
 136:	4e 4c       	sbci	r20, 0xCE	; 206
 138:	00 4f       	sbci	r16, 0xF0	; 240
 13a:	43 52       	subi	r20, 0x23	; 35
 13c:	30 42       	sbci	r19, 0x20	; 32
 13e:	00 4f       	sbci	r16, 0xF0	; 240
 140:	43 52       	subi	r20, 0x23	; 35
 142:	30 41       	sbci	r19, 0x10	; 16
 144:	00 54       	subi	r16, 0x40	; 64
 146:	43 4e       	sbci	r20, 0xE3	; 227
 148:	54 30       	cpi	r21, 0x04	; 4
 14a:	00 54       	subi	r16, 0x40	; 64
 14c:	43 43       	sbci	r20, 0x33	; 51
 14e:	52 30       	cpi	r21, 0x02	; 2
 150:	42 00       	.word	0x0042	; ????
 152:	54 43       	sbci	r21, 0x34	; 52
 154:	43 52       	subi	r20, 0x23	; 35
 156:	30 41       	sbci	r19, 0x10	; 16
 158:	00 54       	subi	r16, 0x40	; 64
 15a:	49 4d       	sbci	r20, 0xD9	; 217
 15c:	53 4b       	sbci	r21, 0xB3	; 179
 15e:	30 00       	.word	0x0030	; ????
 160:	54 49       	sbci	r21, 0x94	; 148
 162:	46 52       	subi	r20, 0x26	; 38
 164:	30 00       	.word	0x0030	; ????
 166:	47 54       	subi	r20, 0x47	; 71
 168:	43 43       	sbci	r20, 0x33	; 51
 16a:	52 00       	.word	0x0052	; ????
 16c:	54 49       	sbci	r21, 0x94	; 148
 16e:	4d 53       	subi	r20, 0x3D	; 61
 170:	4b 32       	cpi	r20, 0x2B	; 43
 172:	00 54       	subi	r16, 0x40	; 64
 174:	49 46       	sbci	r20, 0x69	; 105
 176:	52 32       	cpi	r21, 0x22	; 34
 178:	00 54       	subi	r16, 0x40	; 64
 17a:	43 43       	sbci	r20, 0x33	; 51
 17c:	52 32       	cpi	r21, 0x22	; 34
 17e:	41 00       	.word	0x0041	; ????
 180:	54 43       	sbci	r21, 0x34	; 52
 182:	43 52       	subi	r20, 0x23	; 35
 184:	32 42       	sbci	r19, 0x22	; 34
 186:	00 54       	subi	r16, 0x40	; 64
 188:	43 4e       	sbci	r20, 0xE3	; 227
 18a:	54 32       	cpi	r21, 0x24	; 36
 18c:	00 4f       	sbci	r16, 0xF0	; 240
 18e:	43 52       	subi	r20, 0x23	; 35
 190:	32 42       	sbci	r19, 0x22	; 34
 192:	00 4f       	sbci	r16, 0xF0	; 240
 194:	43 52       	subi	r20, 0x23	; 35
 196:	32 41       	sbci	r19, 0x12	; 18
 198:	00 41       	sbci	r16, 0x10	; 16
 19a:	53 53       	subi	r21, 0x33	; 51
 19c:	52 00       	.word	0x0052	; ????
 19e:	47 54       	subi	r20, 0x47	; 71
 1a0:	43 43       	sbci	r20, 0x33	; 51
 1a2:	52 00       	.word	0x0052	; ????
 1a4:	57 44       	sbci	r21, 0x47	; 71
 1a6:	54 43       	sbci	r21, 0x34	; 52
 1a8:	53 52       	subi	r21, 0x23	; 35
 1aa:	00 55       	subi	r16, 0x50	; 80
 1ac:	44 52       	subi	r20, 0x24	; 36
 1ae:	31 00       	.word	0x0031	; ????
 1b0:	55 43       	sbci	r21, 0x35	; 53
 1b2:	53 52       	subi	r21, 0x23	; 35
 1b4:	31 41       	sbci	r19, 0x11	; 17
 1b6:	00 55       	subi	r16, 0x50	; 80
 1b8:	43 53       	subi	r20, 0x33	; 51
 1ba:	52 31       	cpi	r21, 0x12	; 18
 1bc:	42 00       	.word	0x0042	; ????
 1be:	55 43       	sbci	r21, 0x35	; 53
 1c0:	53 52       	subi	r21, 0x23	; 35
 1c2:	31 43       	sbci	r19, 0x31	; 49
 1c4:	00 55       	subi	r16, 0x50	; 80
 1c6:	42 52       	subi	r20, 0x22	; 34
 1c8:	52 31       	cpi	r21, 0x12	; 18
 1ca:	00 45       	sbci	r16, 0x50	; 80
 1cc:	45 41       	sbci	r20, 0x15	; 21
 1ce:	52 00       	.word	0x0052	; ????
 1d0:	45 45       	sbci	r20, 0x55	; 85
 1d2:	44 52       	subi	r20, 0x24	; 36
 1d4:	00 45       	sbci	r16, 0x50	; 80
 1d6:	45 43       	sbci	r20, 0x35	; 53
 1d8:	52 00       	.word	0x0052	; ????
 1da:	54 43       	sbci	r21, 0x34	; 52
 1dc:	43 52       	subi	r20, 0x23	; 35
 1de:	35 41       	sbci	r19, 0x15	; 21
 1e0:	00 54       	subi	r16, 0x40	; 64
 1e2:	43 43       	sbci	r20, 0x33	; 51
 1e4:	52 35       	cpi	r21, 0x52	; 82
 1e6:	42 00       	.word	0x0042	; ????
 1e8:	54 43       	sbci	r21, 0x34	; 52
 1ea:	43 52       	subi	r20, 0x23	; 35
 1ec:	35 43       	sbci	r19, 0x35	; 53
 1ee:	00 54       	subi	r16, 0x40	; 64
 1f0:	43 4e       	sbci	r20, 0xE3	; 227
 1f2:	54 35       	cpi	r21, 0x54	; 84
 1f4:	00 4f       	sbci	r16, 0xF0	; 240
 1f6:	43 52       	subi	r20, 0x23	; 35
 1f8:	35 41       	sbci	r19, 0x15	; 21
 1fa:	00 4f       	sbci	r16, 0xF0	; 240
 1fc:	43 52       	subi	r20, 0x23	; 35
 1fe:	35 42       	sbci	r19, 0x25	; 37
 200:	00 4f       	sbci	r16, 0xF0	; 240
 202:	43 52       	subi	r20, 0x23	; 35
 204:	35 43       	sbci	r19, 0x35	; 53
 206:	00 49       	sbci	r16, 0x90	; 144
 208:	43 52       	subi	r20, 0x23	; 35
 20a:	35 00       	.word	0x0035	; ????
 20c:	54 49       	sbci	r21, 0x94	; 148
 20e:	4d 53       	subi	r20, 0x3D	; 61
 210:	4b 35       	cpi	r20, 0x5B	; 91
 212:	00 54       	subi	r16, 0x40	; 64
 214:	49 46       	sbci	r20, 0x69	; 105
 216:	52 35       	cpi	r21, 0x52	; 82
 218:	00 54       	subi	r16, 0x40	; 64
 21a:	43 43       	sbci	r20, 0x33	; 51
 21c:	52 34       	cpi	r21, 0x42	; 66
 21e:	41 00       	.word	0x0041	; ????
 220:	54 43       	sbci	r21, 0x34	; 52
 222:	43 52       	subi	r20, 0x23	; 35
 224:	34 42       	sbci	r19, 0x24	; 36
 226:	00 54       	subi	r16, 0x40	; 64
 228:	43 43       	sbci	r20, 0x33	; 51
 22a:	52 34       	cpi	r21, 0x42	; 66
 22c:	43 00       	.word	0x0043	; ????
 22e:	54 43       	sbci	r21, 0x34	; 52
 230:	4e 54       	subi	r20, 0x4E	; 78
 232:	34 00       	.word	0x0034	; ????
 234:	4f 43       	sbci	r20, 0x3F	; 63
 236:	52 34       	cpi	r21, 0x42	; 66
 238:	41 00       	.word	0x0041	; ????
 23a:	4f 43       	sbci	r20, 0x3F	; 63
 23c:	52 34       	cpi	r21, 0x42	; 66
 23e:	42 00       	.word	0x0042	; ????
 240:	4f 43       	sbci	r20, 0x3F	; 63
 242:	52 34       	cpi	r21, 0x42	; 66
 244:	43 00       	.word	0x0043	; ????
 246:	49 43       	sbci	r20, 0x39	; 57
 248:	52 34       	cpi	r21, 0x42	; 66
 24a:	00 54       	subi	r16, 0x40	; 64
 24c:	49 4d       	sbci	r20, 0xD9	; 217
 24e:	53 4b       	sbci	r21, 0xB3	; 179
 250:	34 00       	.word	0x0034	; ????
 252:	54 49       	sbci	r21, 0x94	; 148
 254:	46 52       	subi	r20, 0x26	; 38
 256:	34 00       	.word	0x0034	; ????
 258:	54 43       	sbci	r21, 0x34	; 52
 25a:	43 52       	subi	r20, 0x23	; 35
 25c:	33 41       	sbci	r19, 0x13	; 19
 25e:	00 54       	subi	r16, 0x40	; 64
 260:	43 43       	sbci	r20, 0x33	; 51
 262:	52 33       	cpi	r21, 0x32	; 50
 264:	42 00       	.word	0x0042	; ????
 266:	54 43       	sbci	r21, 0x34	; 52
 268:	43 52       	subi	r20, 0x23	; 35
 26a:	33 43       	sbci	r19, 0x33	; 51
 26c:	00 54       	subi	r16, 0x40	; 64
 26e:	43 4e       	sbci	r20, 0xE3	; 227
 270:	54 33       	cpi	r21, 0x34	; 52
 272:	00 4f       	sbci	r16, 0xF0	; 240
 274:	43 52       	subi	r20, 0x23	; 35
 276:	33 41       	sbci	r19, 0x13	; 19
 278:	00 4f       	sbci	r16, 0xF0	; 240
 27a:	43 52       	subi	r20, 0x23	; 35
 27c:	33 42       	sbci	r19, 0x23	; 35
 27e:	00 4f       	sbci	r16, 0xF0	; 240
 280:	43 52       	subi	r20, 0x23	; 35
 282:	33 43       	sbci	r19, 0x33	; 51
 284:	00 49       	sbci	r16, 0x90	; 144
 286:	43 52       	subi	r20, 0x23	; 35
 288:	33 00       	.word	0x0033	; ????
 28a:	54 49       	sbci	r21, 0x94	; 148
 28c:	4d 53       	subi	r20, 0x3D	; 61
 28e:	4b 33       	cpi	r20, 0x3B	; 59
 290:	00 54       	subi	r16, 0x40	; 64
 292:	49 46       	sbci	r20, 0x69	; 105
 294:	52 33       	cpi	r21, 0x32	; 50
 296:	00 54       	subi	r16, 0x40	; 64
 298:	43 43       	sbci	r20, 0x33	; 51
 29a:	52 31       	cpi	r21, 0x12	; 18
 29c:	41 00       	.word	0x0041	; ????
 29e:	54 43       	sbci	r21, 0x34	; 52
 2a0:	43 52       	subi	r20, 0x23	; 35
 2a2:	31 42       	sbci	r19, 0x21	; 33
 2a4:	00 54       	subi	r16, 0x40	; 64
 2a6:	43 43       	sbci	r20, 0x33	; 51
 2a8:	52 31       	cpi	r21, 0x12	; 18
 2aa:	43 00       	.word	0x0043	; ????
 2ac:	54 43       	sbci	r21, 0x34	; 52
 2ae:	4e 54       	subi	r20, 0x4E	; 78
 2b0:	31 00       	.word	0x0031	; ????
 2b2:	4f 43       	sbci	r20, 0x3F	; 63
 2b4:	52 31       	cpi	r21, 0x12	; 18
 2b6:	41 00       	.word	0x0041	; ????
 2b8:	4f 43       	sbci	r20, 0x3F	; 63
 2ba:	52 31       	cpi	r21, 0x12	; 18
 2bc:	42 00       	.word	0x0042	; ????
 2be:	4f 43       	sbci	r20, 0x3F	; 63
 2c0:	52 31       	cpi	r21, 0x12	; 18
 2c2:	43 00       	.word	0x0043	; ????
 2c4:	49 43       	sbci	r20, 0x39	; 57
 2c6:	52 31       	cpi	r21, 0x12	; 18
 2c8:	00 54       	subi	r16, 0x40	; 64
 2ca:	49 4d       	sbci	r20, 0xD9	; 217
 2cc:	53 4b       	sbci	r21, 0xB3	; 179
 2ce:	31 00       	.word	0x0031	; ????
 2d0:	54 49       	sbci	r21, 0x94	; 148
 2d2:	46 52       	subi	r20, 0x26	; 38
 2d4:	31 00       	.word	0x0031	; ????
 2d6:	4f 43       	sbci	r20, 0x3F	; 63
 2d8:	44 52       	subi	r20, 0x24	; 36
 2da:	00 4d       	sbci	r16, 0xD0	; 208
 2dc:	43 55       	subi	r20, 0x53	; 83
 2de:	43 52       	subi	r20, 0x23	; 35
 2e0:	00 4d       	sbci	r16, 0xD0	; 208
 2e2:	43 55       	subi	r20, 0x53	; 83
 2e4:	53 52       	subi	r21, 0x23	; 35
 2e6:	00 45       	sbci	r16, 0x50	; 80
 2e8:	49 43       	sbci	r20, 0x39	; 57
 2ea:	52 41       	sbci	r21, 0x12	; 18
 2ec:	00 45       	sbci	r16, 0x50	; 80
 2ee:	49 43       	sbci	r20, 0x39	; 57
 2f0:	52 42       	sbci	r21, 0x22	; 34
 2f2:	00 45       	sbci	r16, 0x50	; 80
 2f4:	49 4d       	sbci	r20, 0xD9	; 217
 2f6:	53 4b       	sbci	r21, 0xB3	; 179
 2f8:	00 45       	sbci	r16, 0x50	; 80
 2fa:	49 46       	sbci	r20, 0x69	; 105
 2fc:	52 00       	.word	0x0052	; ????
 2fe:	50 43       	sbci	r21, 0x30	; 48
 300:	4d 53       	subi	r20, 0x3D	; 61
 302:	4b 32       	cpi	r20, 0x2B	; 43
 304:	00 50       	subi	r16, 0x00	; 0
 306:	43 4d       	sbci	r20, 0xD3	; 211
 308:	53 4b       	sbci	r21, 0xB3	; 179
 30a:	31 00       	.word	0x0031	; ????
 30c:	50 43       	sbci	r21, 0x30	; 48
 30e:	4d 53       	subi	r20, 0x3D	; 61
 310:	4b 30       	cpi	r20, 0x0B	; 11
 312:	00 50       	subi	r16, 0x00	; 0
 314:	43 49       	sbci	r20, 0x93	; 147
 316:	46 52       	subi	r20, 0x26	; 38
 318:	00 50       	subi	r16, 0x00	; 0
 31a:	43 49       	sbci	r20, 0x93	; 147
 31c:	43 52       	subi	r20, 0x23	; 35
 31e:	00 53       	subi	r16, 0x30	; 48
 320:	52 45       	sbci	r21, 0x52	; 82
 322:	47 00       	.word	0x0047	; ????
 324:	53 50       	subi	r21, 0x03	; 3
 326:	00 4d       	sbci	r16, 0xD0	; 208
 328:	43 55       	subi	r20, 0x53	; 83
 32a:	43 52       	subi	r20, 0x23	; 35
 32c:	00 4d       	sbci	r16, 0xD0	; 208
 32e:	43 55       	subi	r20, 0x53	; 83
 330:	53 52       	subi	r21, 0x23	; 35
 332:	00 58       	subi	r16, 0x80	; 128
 334:	4d 43       	sbci	r20, 0x3D	; 61
 336:	52 41       	sbci	r21, 0x12	; 18
 338:	00 58       	subi	r16, 0x80	; 128
 33a:	4d 43       	sbci	r20, 0x3D	; 61
 33c:	52 42       	sbci	r21, 0x22	; 34
 33e:	00 4f       	sbci	r16, 0xF0	; 240
 340:	53 43       	sbci	r21, 0x33	; 51
 342:	43 41       	sbci	r20, 0x13	; 19
 344:	4c 00       	.word	0x004c	; ????
 346:	43 4c       	sbci	r20, 0xC3	; 195
 348:	4b 50       	subi	r20, 0x0B	; 11
 34a:	52 00       	.word	0x0052	; ????
 34c:	53 4d       	sbci	r21, 0xD3	; 211
 34e:	43 52       	subi	r20, 0x23	; 35
 350:	00 45       	sbci	r16, 0x50	; 80
 352:	49 4e       	sbci	r20, 0xE9	; 233
 354:	44 00       	.word	0x0044	; ????
 356:	52 41       	sbci	r21, 0x12	; 18
 358:	4d 50       	subi	r20, 0x0D	; 13
 35a:	5a 00       	.word	0x005a	; ????
 35c:	47 50       	subi	r20, 0x07	; 7
 35e:	49 4f       	sbci	r20, 0xF9	; 249
 360:	52 32       	cpi	r21, 0x22	; 34
 362:	00 47       	sbci	r16, 0x70	; 112
 364:	50 49       	sbci	r21, 0x90	; 144
 366:	4f 52       	subi	r20, 0x2F	; 47
 368:	31 00       	.word	0x0031	; ????
 36a:	47 50       	subi	r20, 0x07	; 7
 36c:	49 4f       	sbci	r20, 0xF9	; 249
 36e:	52 30       	cpi	r21, 0x02	; 2
 370:	00 50       	subi	r16, 0x00	; 0
 372:	52 52       	subi	r21, 0x22	; 34
 374:	31 00       	.word	0x0031	; ????
 376:	50 52       	subi	r21, 0x20	; 32
 378:	52 30       	cpi	r21, 0x02	; 2
 37a:	00 41       	sbci	r16, 0x10	; 16
 37c:	44 4d       	sbci	r20, 0xD4	; 212
 37e:	55 58       	subi	r21, 0x85	; 133
 380:	00 41       	sbci	r16, 0x10	; 16
 382:	44 43       	sbci	r20, 0x34	; 52
 384:	00 41       	sbci	r16, 0x10	; 16
 386:	44 43       	sbci	r20, 0x34	; 52
 388:	53 52       	subi	r21, 0x23	; 35
 38a:	41 00       	.word	0x0041	; ????
 38c:	41 44       	sbci	r20, 0x41	; 65
 38e:	43 53       	subi	r20, 0x33	; 51
 390:	52 42       	sbci	r21, 0x22	; 34
 392:	00 44       	sbci	r16, 0x40	; 64
 394:	49 44       	sbci	r20, 0x49	; 73
 396:	52 32       	cpi	r21, 0x22	; 34
 398:	00 44       	sbci	r16, 0x40	; 64
 39a:	49 44       	sbci	r20, 0x49	; 73
 39c:	52 30       	cpi	r21, 0x02	; 2
 39e:	00 53       	subi	r16, 0x30	; 48
 3a0:	50 4d       	sbci	r21, 0xD0	; 208
 3a2:	43 53       	subi	r20, 0x33	; 51
 3a4:	52 00       	.word	0x0052	; ????
 3a6:	55 44       	sbci	r21, 0x45	; 69
 3a8:	52 32       	cpi	r21, 0x22	; 34
 3aa:	00 55       	subi	r16, 0x50	; 80
 3ac:	43 53       	subi	r20, 0x33	; 51
 3ae:	52 32       	cpi	r21, 0x22	; 34
 3b0:	41 00       	.word	0x0041	; ????
 3b2:	55 43       	sbci	r21, 0x35	; 53
 3b4:	53 52       	subi	r21, 0x23	; 35
 3b6:	32 42       	sbci	r19, 0x22	; 34
 3b8:	00 55       	subi	r16, 0x50	; 80
 3ba:	43 53       	subi	r20, 0x33	; 51
 3bc:	52 32       	cpi	r21, 0x22	; 34
 3be:	43 00       	.word	0x0043	; ????
 3c0:	55 42       	sbci	r21, 0x25	; 37
 3c2:	52 52       	subi	r21, 0x22	; 34
 3c4:	32 00       	.word	0x0032	; ????
 3c6:	55 44       	sbci	r21, 0x45	; 69
 3c8:	52 33       	cpi	r21, 0x32	; 50
 3ca:	00 55       	subi	r16, 0x50	; 80
 3cc:	43 53       	subi	r20, 0x33	; 51
 3ce:	52 33       	cpi	r21, 0x32	; 50
 3d0:	41 00       	.word	0x0041	; ????
 3d2:	55 43       	sbci	r21, 0x35	; 53
 3d4:	53 52       	subi	r21, 0x23	; 35
 3d6:	33 42       	sbci	r19, 0x23	; 35
 3d8:	00 55       	subi	r16, 0x50	; 80
 3da:	43 53       	subi	r20, 0x33	; 51
 3dc:	52 33       	cpi	r21, 0x32	; 50
 3de:	43 00       	.word	0x0043	; ????
 3e0:	55 42       	sbci	r21, 0x25	; 37
 3e2:	52 52       	subi	r21, 0x22	; 34
 3e4:	33 00       	.word	0x0033	; ????
